libsentencepiece.so.0:_ZN13sentencepiece10ModelProto12InternalSwapEPS0_
libsentencepiece.so.0:_ZN13sentencepiece10ModelProto14_InternalParseEPKcPN6google8protobuf8internal12ParseContextE
libsentencepiece.so.0:_ZN13sentencepiece10ModelProto16default_instanceEv
libsentencepiece.so.0:_ZN13sentencepiece10ModelProto21CheckTypeAndMergeFromERKN6google8protobuf11MessageLiteE
libsentencepiece.so.0:_ZN13sentencepiece10ModelProto5ClearEv
libsentencepiece.so.0:_ZN13sentencepiece10ModelProto8CopyFromERKS0_
libsentencepiece.so.0:_ZN13sentencepiece10ModelProto9ArenaDtorEPv
libsentencepiece.so.0:_ZN13sentencepiece10ModelProto9MergeFromERKS0_
libsentencepiece.so.0:_ZN13sentencepiece10ModelProto9_Internal12trainer_specEPKS0_
libsentencepiece.so.0:_ZN13sentencepiece10ModelProto9_Internal14self_test_dataEPKS0_
libsentencepiece.so.0:_ZN13sentencepiece10ModelProto9_Internal15normalizer_specEPKS0_
libsentencepiece.so.0:_ZN13sentencepiece10ModelProto9_Internal17denormalizer_specEPKS0_
libsentencepiece.so.0:_ZN13sentencepiece10ModelProtoC1EPN6google8protobuf5ArenaE
libsentencepiece.so.0:_ZN13sentencepiece10ModelProtoC1ERKS0_
libsentencepiece.so.0:_ZN13sentencepiece10ModelProtoC2EPN6google8protobuf5ArenaE
libsentencepiece.so.0:_ZN13sentencepiece10ModelProtoC2ERKS0_
libsentencepiece.so.0:_ZN13sentencepiece10ModelProtoD0Ev
libsentencepiece.so.0:_ZN13sentencepiece10ModelProtoD1Ev
libsentencepiece.so.0:_ZN13sentencepiece10ModelProtoD2Ev
libsentencepiece.so.0:_ZN13sentencepiece10filesystem15NewReadableFileESt17basic_string_viewIcSt11char_traitsIcEEb
libsentencepiece.so.0:_ZN13sentencepiece10filesystem15NewWritableFileESt17basic_string_viewIcSt11char_traitsIcEEb
libsentencepiece.so.0:_ZN13sentencepiece10normalizer10Normalizer25DecodePrecompiledCharsMapESt17basic_string_viewIcSt11char_traitsIcEEPS5_S6_PNSt7__cxx1112basic_stringIcS4_SaIcEEE
libsentencepiece.so.0:_ZN13sentencepiece10normalizer10Normalizer25EncodePrecompiledCharsMapB5cxx11ESt17basic_string_viewIcSt11char_traitsIcEES5_
libsentencepiece.so.0:_ZN13sentencepiece10normalizer10Normalizer4InitEv
libsentencepiece.so.0:_ZN13sentencepiece10normalizer10NormalizerC1ERKNS_14NormalizerSpecE
libsentencepiece.so.0:_ZN13sentencepiece10normalizer10NormalizerC1ERKNS_14NormalizerSpecERKNS_11TrainerSpecE
libsentencepiece.so.0:_ZN13sentencepiece10normalizer10NormalizerC2ERKNS_14NormalizerSpecE
libsentencepiece.so.0:_ZN13sentencepiece10normalizer10NormalizerC2ERKNS_14NormalizerSpecERKNS_11TrainerSpecE
libsentencepiece.so.0:_ZN13sentencepiece10normalizer10NormalizerD0Ev
libsentencepiece.so.0:_ZN13sentencepiece10normalizer10NormalizerD1Ev
libsentencepiece.so.0:_ZN13sentencepiece10normalizer10NormalizerD2Ev
libsentencepiece.so.0:_ZN13sentencepiece10normalizer13PrefixMatcherC1ERKSt3setISt17basic_string_viewIcSt11char_traitsIcEESt4lessIS6_ESaIS6_EE
libsentencepiece.so.0:_ZN13sentencepiece10normalizer13PrefixMatcherC2ERKSt3setISt17basic_string_viewIcSt11char_traitsIcEESt4lessIS6_ESaIS6_EE
libsentencepiece.so.0:_ZN13sentencepiece11ByteToPieceB5cxx11Eh
libsentencepiece.so.0:_ZN13sentencepiece11PieceToByteESt17basic_string_viewIcSt11char_traitsIcEE
libsentencepiece.so.0:_ZN13sentencepiece11TrainerSpec12InternalSwapEPS0_
libsentencepiece.so.0:_ZN13sentencepiece11TrainerSpec14_InternalParseEPKcPN6google8protobuf8internal12ParseContextE
libsentencepiece.so.0:_ZN13sentencepiece11TrainerSpec16default_instanceEv
libsentencepiece.so.0:_ZN13sentencepiece11TrainerSpec21CheckTypeAndMergeFromERKN6google8protobuf11MessageLiteE
libsentencepiece.so.0:_ZN13sentencepiece11TrainerSpec5ClearEv
libsentencepiece.so.0:_ZN13sentencepiece11TrainerSpec8CopyFromERKS0_
libsentencepiece.so.0:_ZN13sentencepiece11TrainerSpec9ArenaDtorEPv
libsentencepiece.so.0:_ZN13sentencepiece11TrainerSpec9MergeFromERKS0_
libsentencepiece.so.0:_ZN13sentencepiece11TrainerSpecC1EPN6google8protobuf5ArenaE
libsentencepiece.so.0:_ZN13sentencepiece11TrainerSpecC1ERKS0_
libsentencepiece.so.0:_ZN13sentencepiece11TrainerSpecC2EPN6google8protobuf5ArenaE
libsentencepiece.so.0:_ZN13sentencepiece11TrainerSpecC2ERKS0_
libsentencepiece.so.0:_ZN13sentencepiece11TrainerSpecD0Ev
libsentencepiece.so.0:_ZN13sentencepiece11TrainerSpecD1Ev
libsentencepiece.so.0:_ZN13sentencepiece11TrainerSpecD2Ev
libsentencepiece.so.0:_ZN13sentencepiece11string_util10DecodeUTF8EPKcS2_Pm
libsentencepiece.so.0:_ZN13sentencepiece11string_util10EncodeUTF8EjPc
libsentencepiece.so.0:_ZN13sentencepiece11string_util17UTF8ToUnicodeTextESt17basic_string_viewIcSt11char_traitsIcEE
libsentencepiece.so.0:_ZN13sentencepiece11string_util17UnicodeCharToUTF8B5cxx11Ej
libsentencepiece.so.0:_ZN13sentencepiece11string_util17UnicodeTextToUTF8B5cxx11ERKSt6vectorIjSaIjEE
libsentencepiece.so.0:_ZN13sentencepiece11string_util19IsStructurallyValidESt17basic_string_viewIcSt11char_traitsIcEE
libsentencepiece.so.0:_ZN13sentencepiece12ModelFactory6CreateERKNS_10ModelProtoE
libsentencepiece.so.0:_ZN13sentencepiece12SelfTestData12InternalSwapEPS0_
libsentencepiece.so.0:_ZN13sentencepiece12SelfTestData14_InternalParseEPKcPN6google8protobuf8internal12ParseContextE
libsentencepiece.so.0:_ZN13sentencepiece12SelfTestData16default_instanceEv
libsentencepiece.so.0:_ZN13sentencepiece12SelfTestData21CheckTypeAndMergeFromERKN6google8protobuf11MessageLiteE
libsentencepiece.so.0:_ZN13sentencepiece12SelfTestData5ClearEv
libsentencepiece.so.0:_ZN13sentencepiece12SelfTestData8CopyFromERKS0_
libsentencepiece.so.0:_ZN13sentencepiece12SelfTestData9ArenaDtorEPv
libsentencepiece.so.0:_ZN13sentencepiece12SelfTestData9MergeFromERKS0_
libsentencepiece.so.0:_ZN13sentencepiece12SelfTestDataC1EPN6google8protobuf5ArenaE
libsentencepiece.so.0:_ZN13sentencepiece12SelfTestDataC1ERKS0_
libsentencepiece.so.0:_ZN13sentencepiece12SelfTestDataC2EPN6google8protobuf5ArenaE
libsentencepiece.so.0:_ZN13sentencepiece12SelfTestDataC2ERKS0_
libsentencepiece.so.0:_ZN13sentencepiece12SelfTestDataD0Ev
libsentencepiece.so.0:_ZN13sentencepiece12SelfTestDataD1Ev
libsentencepiece.so.0:_ZN13sentencepiece12SelfTestDataD2Ev
libsentencepiece.so.0:_ZN13sentencepiece14ModelInterface16InitializePiecesEv
libsentencepiece.so.0:_ZN13sentencepiece14ModelInterfaceC1ERKNS_10ModelProtoE
libsentencepiece.so.0:_ZN13sentencepiece14ModelInterfaceC2ERKNS_10ModelProtoE
libsentencepiece.so.0:_ZN13sentencepiece14ModelInterfaceD0Ev
libsentencepiece.so.0:_ZN13sentencepiece14ModelInterfaceD1Ev
libsentencepiece.so.0:_ZN13sentencepiece14ModelInterfaceD2Ev
libsentencepiece.so.0:_ZN13sentencepiece14NormalizerSpec12InternalSwapEPS0_
libsentencepiece.so.0:_ZN13sentencepiece14NormalizerSpec14_InternalParseEPKcPN6google8protobuf8internal12ParseContextE
libsentencepiece.so.0:_ZN13sentencepiece14NormalizerSpec16default_instanceEv
libsentencepiece.so.0:_ZN13sentencepiece14NormalizerSpec21CheckTypeAndMergeFromERKN6google8protobuf11MessageLiteE
libsentencepiece.so.0:_ZN13sentencepiece14NormalizerSpec5ClearEv
libsentencepiece.so.0:_ZN13sentencepiece14NormalizerSpec8CopyFromERKS0_
libsentencepiece.so.0:_ZN13sentencepiece14NormalizerSpec9ArenaDtorEPv
libsentencepiece.so.0:_ZN13sentencepiece14NormalizerSpec9MergeFromERKS0_
libsentencepiece.so.0:_ZN13sentencepiece14NormalizerSpecC1EPN6google8protobuf5ArenaE
libsentencepiece.so.0:_ZN13sentencepiece14NormalizerSpecC1ERKS0_
libsentencepiece.so.0:_ZN13sentencepiece14NormalizerSpecC2EPN6google8protobuf5ArenaE
libsentencepiece.so.0:_ZN13sentencepiece14NormalizerSpecC2ERKS0_
libsentencepiece.so.0:_ZN13sentencepiece14NormalizerSpecD0Ev
libsentencepiece.so.0:_ZN13sentencepiece14NormalizerSpecD1Ev
libsentencepiece.so.0:_ZN13sentencepiece14NormalizerSpecD2Ev
libsentencepiece.so.0:_ZN13sentencepiece14SplitIntoWordsESt17basic_string_viewIcSt11char_traitsIcEEbb
libsentencepiece.so.0:_ZN13sentencepiece17SentencePieceText12InternalSwapEPS0_
libsentencepiece.so.0:_ZN13sentencepiece17SentencePieceText14_InternalParseEPKcPN6google8protobuf8internal12ParseContextE
libsentencepiece.so.0:_ZN13sentencepiece17SentencePieceText16default_instanceEv
libsentencepiece.so.0:_ZN13sentencepiece17SentencePieceText21CheckTypeAndMergeFromERKN6google8protobuf11MessageLiteE
libsentencepiece.so.0:_ZN13sentencepiece17SentencePieceText5ClearEv
libsentencepiece.so.0:_ZN13sentencepiece17SentencePieceText8CopyFromERKS0_
libsentencepiece.so.0:_ZN13sentencepiece17SentencePieceText9ArenaDtorEPv
libsentencepiece.so.0:_ZN13sentencepiece17SentencePieceText9MergeFromERKS0_
libsentencepiece.so.0:_ZN13sentencepiece17SentencePieceTextC1EPN6google8protobuf5ArenaE
libsentencepiece.so.0:_ZN13sentencepiece17SentencePieceTextC1ERKS0_
libsentencepiece.so.0:_ZN13sentencepiece17SentencePieceTextC2EPN6google8protobuf5ArenaE
libsentencepiece.so.0:_ZN13sentencepiece17SentencePieceTextC2ERKS0_
libsentencepiece.so.0:_ZN13sentencepiece17SentencePieceTextD0Ev
libsentencepiece.so.0:_ZN13sentencepiece17SentencePieceTextD1Ev
libsentencepiece.so.0:_ZN13sentencepiece17SentencePieceTextD2Ev
libsentencepiece.so.0:_ZN13sentencepiece19SelfTestData_Sample12InternalSwapEPS0_
libsentencepiece.so.0:_ZN13sentencepiece19SelfTestData_Sample14_InternalParseEPKcPN6google8protobuf8internal12ParseContextE
libsentencepiece.so.0:_ZN13sentencepiece19SelfTestData_Sample16default_instanceEv
libsentencepiece.so.0:_ZN13sentencepiece19SelfTestData_Sample21CheckTypeAndMergeFromERKN6google8protobuf11MessageLiteE
libsentencepiece.so.0:_ZN13sentencepiece19SelfTestData_Sample5ClearEv
libsentencepiece.so.0:_ZN13sentencepiece19SelfTestData_Sample8CopyFromERKS0_
libsentencepiece.so.0:_ZN13sentencepiece19SelfTestData_Sample9ArenaDtorEPv
libsentencepiece.so.0:_ZN13sentencepiece19SelfTestData_Sample9MergeFromERKS0_
libsentencepiece.so.0:_ZN13sentencepiece19SelfTestData_SampleC1EPN6google8protobuf5ArenaE
libsentencepiece.so.0:_ZN13sentencepiece19SelfTestData_SampleC1ERKS0_
libsentencepiece.so.0:_ZN13sentencepiece19SelfTestData_SampleC2EPN6google8protobuf5ArenaE
libsentencepiece.so.0:_ZN13sentencepiece19SelfTestData_SampleC2ERKS0_
libsentencepiece.so.0:_ZN13sentencepiece19SelfTestData_SampleD0Ev
libsentencepiece.so.0:_ZN13sentencepiece19SelfTestData_SampleD1Ev
libsentencepiece.so.0:_ZN13sentencepiece19SelfTestData_SampleD2Ev
libsentencepiece.so.0:_ZN13sentencepiece22GetRandomGeneratorSeedEv
libsentencepiece.so.0:_ZN13sentencepiece22NBestSentencePieceText12InternalSwapEPS0_
libsentencepiece.so.0:_ZN13sentencepiece22NBestSentencePieceText14_InternalParseEPKcPN6google8protobuf8internal12ParseContextE
libsentencepiece.so.0:_ZN13sentencepiece22NBestSentencePieceText16default_instanceEv
libsentencepiece.so.0:_ZN13sentencepiece22NBestSentencePieceText21CheckTypeAndMergeFromERKN6google8protobuf11MessageLiteE
libsentencepiece.so.0:_ZN13sentencepiece22NBestSentencePieceText5ClearEv
libsentencepiece.so.0:_ZN13sentencepiece22NBestSentencePieceText8CopyFromERKS0_
libsentencepiece.so.0:_ZN13sentencepiece22NBestSentencePieceText9ArenaDtorEPv
libsentencepiece.so.0:_ZN13sentencepiece22NBestSentencePieceText9MergeFromERKS0_
libsentencepiece.so.0:_ZN13sentencepiece22NBestSentencePieceTextC1EPN6google8protobuf5ArenaE
libsentencepiece.so.0:_ZN13sentencepiece22NBestSentencePieceTextC1ERKS0_
libsentencepiece.so.0:_ZN13sentencepiece22NBestSentencePieceTextC2EPN6google8protobuf5ArenaE
libsentencepiece.so.0:_ZN13sentencepiece22NBestSentencePieceTextC2ERKS0_
libsentencepiece.so.0:_ZN13sentencepiece22NBestSentencePieceTextD0Ev
libsentencepiece.so.0:_ZN13sentencepiece22NBestSentencePieceTextD1Ev
libsentencepiece.so.0:_ZN13sentencepiece22NBestSentencePieceTextD2Ev
libsentencepiece.so.0:_ZN13sentencepiece22SentencePieceProcessor13SetNormalizerEOSt10unique_ptrINS_10normalizer10NormalizerESt14default_deleteIS3_EE
libsentencepiece.so.0:_ZN13sentencepiece22SentencePieceProcessor13SetVocabularyERKSt6vectorISt17basic_string_viewIcSt11char_traitsIcEESaIS5_EE
libsentencepiece.so.0:_ZN13sentencepiece22SentencePieceProcessor14LoadVocabularyESt17basic_string_viewIcSt11char_traitsIcEEi
libsentencepiece.so.0:_ZN13sentencepiece22SentencePieceProcessor15ResetVocabularyEv
libsentencepiece.so.0:_ZN13sentencepiece22SentencePieceProcessor21SetDecodeExtraOptionsESt17basic_string_viewIcSt11char_traitsIcEE
libsentencepiece.so.0:_ZN13sentencepiece22SentencePieceProcessor21SetEncodeExtraOptionsESt17basic_string_viewIcSt11char_traitsIcEE
libsentencepiece.so.0:_ZN13sentencepiece22SentencePieceProcessor23LoadFromSerializedProtoESt17basic_string_viewIcSt11char_traitsIcEE
libsentencepiece.so.0:_ZN13sentencepiece22SentencePieceProcessor4LoadERKNS_10ModelProtoE
libsentencepiece.so.0:_ZN13sentencepiece22SentencePieceProcessor4LoadESt10unique_ptrINS_10ModelProtoESt14default_deleteIS2_EE
libsentencepiece.so.0:_ZN13sentencepiece22SentencePieceProcessor4LoadESt17basic_string_viewIcSt11char_traitsIcEE
libsentencepiece.so.0:_ZN13sentencepiece22SentencePieceProcessor8SetModelEOSt10unique_ptrINS_14ModelInterfaceESt14default_deleteIS2_EE
libsentencepiece.so.0:_ZN13sentencepiece22SentencePieceProcessor9LoadOrDieESt17basic_string_viewIcSt11char_traitsIcEE
libsentencepiece.so.0:_ZN13sentencepiece22SentencePieceProcessorC1Ev
libsentencepiece.so.0:_ZN13sentencepiece22SentencePieceProcessorC2Ev
libsentencepiece.so.0:_ZN13sentencepiece22SentencePieceProcessorD0Ev
libsentencepiece.so.0:_ZN13sentencepiece22SentencePieceProcessorD1Ev
libsentencepiece.so.0:_ZN13sentencepiece22SentencePieceProcessorD2Ev
libsentencepiece.so.0:_ZN13sentencepiece22SetRandomGeneratorSeedEj
libsentencepiece.so.0:_ZN13sentencepiece24ModelProto_SentencePiece12InternalSwapEPS0_
libsentencepiece.so.0:_ZN13sentencepiece24ModelProto_SentencePiece14_InternalParseEPKcPN6google8protobuf8internal12ParseContextE
libsentencepiece.so.0:_ZN13sentencepiece24ModelProto_SentencePiece16default_instanceEv
libsentencepiece.so.0:_ZN13sentencepiece24ModelProto_SentencePiece21CheckTypeAndMergeFromERKN6google8protobuf11MessageLiteE
libsentencepiece.so.0:_ZN13sentencepiece24ModelProto_SentencePiece5ClearEv
libsentencepiece.so.0:_ZN13sentencepiece24ModelProto_SentencePiece8CopyFromERKS0_
libsentencepiece.so.0:_ZN13sentencepiece24ModelProto_SentencePiece9ArenaDtorEPv
libsentencepiece.so.0:_ZN13sentencepiece24ModelProto_SentencePiece9MergeFromERKS0_
libsentencepiece.so.0:_ZN13sentencepiece24ModelProto_SentencePieceC1EPN6google8protobuf5ArenaE
libsentencepiece.so.0:_ZN13sentencepiece24ModelProto_SentencePieceC1ERKS0_
libsentencepiece.so.0:_ZN13sentencepiece24ModelProto_SentencePieceC2EPN6google8protobuf5ArenaE
libsentencepiece.so.0:_ZN13sentencepiece24ModelProto_SentencePieceC2ERKS0_
libsentencepiece.so.0:_ZN13sentencepiece24ModelProto_SentencePieceD0Ev
libsentencepiece.so.0:_ZN13sentencepiece24ModelProto_SentencePieceD1Ev
libsentencepiece.so.0:_ZN13sentencepiece24ModelProto_SentencePieceD2Ev
libsentencepiece.so.0:_ZN13sentencepiece26ImmutableSentencePieceText13mutable_protoEv
libsentencepiece.so.0:_ZN13sentencepiece26ImmutableSentencePieceText21ConvertToUnicodeSpansEv
libsentencepiece.so.0:_ZN13sentencepiece26ImmutableSentencePieceTextC1ERKNS_17SentencePieceTextE
libsentencepiece.so.0:_ZN13sentencepiece26ImmutableSentencePieceTextC1Ev
libsentencepiece.so.0:_ZN13sentencepiece26ImmutableSentencePieceTextC2ERKNS_17SentencePieceTextE
libsentencepiece.so.0:_ZN13sentencepiece26ImmutableSentencePieceTextC2Ev
libsentencepiece.so.0:_ZN13sentencepiece26ImmutableSentencePieceTextD0Ev
libsentencepiece.so.0:_ZN13sentencepiece26ImmutableSentencePieceTextD1Ev
libsentencepiece.so.0:_ZN13sentencepiece26ImmutableSentencePieceTextD2Ev
libsentencepiece.so.0:_ZN13sentencepiece26TrainerSpec_ModelType_NameB5cxx11ENS_21TrainerSpec_ModelTypeE
libsentencepiece.so.0:_ZN13sentencepiece27TrainerSpec_ModelType_ParseERKNSt7__cxx1112basic_stringIcSt11char_traitsIcESaIcEEEPNS_21TrainerSpec_ModelTypeE
libsentencepiece.so.0:_ZN13sentencepiece29TrainerSpec_ModelType_IsValidEi
libsentencepiece.so.0:_ZN13sentencepiece2io14LoadModelProtoESt17basic_string_viewIcSt11char_traitsIcEEPNS_10ModelProtoE
libsentencepiece.so.0:_ZN13sentencepiece2io14SaveModelProtoESt17basic_string_viewIcSt11char_traitsIcEERKNS_10ModelProtoE
libsentencepiece.so.0:_ZN13sentencepiece31ImmutableNBestSentencePieceText13mutable_protoEv
libsentencepiece.so.0:_ZN13sentencepiece31ImmutableNBestSentencePieceText21ConvertToUnicodeSpansEv
libsentencepiece.so.0:_ZN13sentencepiece31ImmutableNBestSentencePieceTextC1Ev
libsentencepiece.so.0:_ZN13sentencepiece31ImmutableNBestSentencePieceTextC2Ev
libsentencepiece.so.0:_ZN13sentencepiece31ImmutableNBestSentencePieceTextD0Ev
libsentencepiece.so.0:_ZN13sentencepiece31ImmutableNBestSentencePieceTextD1Ev
libsentencepiece.so.0:_ZN13sentencepiece31ImmutableNBestSentencePieceTextD2Ev
libsentencepiece.so.0:_ZN13sentencepiece31SentencePieceText_SentencePiece12InternalSwapEPS0_
libsentencepiece.so.0:_ZN13sentencepiece31SentencePieceText_SentencePiece14_InternalParseEPKcPN6google8protobuf8internal12ParseContextE
libsentencepiece.so.0:_ZN13sentencepiece31SentencePieceText_SentencePiece16default_instanceEv
libsentencepiece.so.0:_ZN13sentencepiece31SentencePieceText_SentencePiece21CheckTypeAndMergeFromERKN6google8protobuf11MessageLiteE
libsentencepiece.so.0:_ZN13sentencepiece31SentencePieceText_SentencePiece5ClearEv
libsentencepiece.so.0:_ZN13sentencepiece31SentencePieceText_SentencePiece8CopyFromERKS0_
libsentencepiece.so.0:_ZN13sentencepiece31SentencePieceText_SentencePiece9ArenaDtorEPv
libsentencepiece.so.0:_ZN13sentencepiece31SentencePieceText_SentencePiece9MergeFromERKS0_
libsentencepiece.so.0:_ZN13sentencepiece31SentencePieceText_SentencePieceC1EPN6google8protobuf5ArenaE
libsentencepiece.so.0:_ZN13sentencepiece31SentencePieceText_SentencePieceC1ERKS0_
libsentencepiece.so.0:_ZN13sentencepiece31SentencePieceText_SentencePieceC2EPN6google8protobuf5ArenaE
libsentencepiece.so.0:_ZN13sentencepiece31SentencePieceText_SentencePieceC2ERKS0_
libsentencepiece.so.0:_ZN13sentencepiece31SentencePieceText_SentencePieceD0Ev
libsentencepiece.so.0:_ZN13sentencepiece31SentencePieceText_SentencePieceD1Ev
libsentencepiece.so.0:_ZN13sentencepiece31SentencePieceText_SentencePieceD2Ev
libsentencepiece.so.0:_ZN13sentencepiece34ModelProto_SentencePiece_Type_NameB5cxx11ENS_29ModelProto_SentencePiece_TypeE
libsentencepiece.so.0:_ZN13sentencepiece35ModelProto_SentencePiece_Type_ParseERKNSt7__cxx1112basic_stringIcSt11char_traitsIcESaIcEEEPNS_29ModelProto_SentencePiece_TypeE
libsentencepiece.so.0:_ZN13sentencepiece37ModelProto_SentencePiece_Type_IsValidEi
libsentencepiece.so.0:_ZN13sentencepiece3bpe5ModelC1ERKNS_10ModelProtoE
libsentencepiece.so.0:_ZN13sentencepiece3bpe5ModelC2ERKNS_10ModelProtoE
libsentencepiece.so.0:_ZN13sentencepiece3bpe5ModelD0Ev
libsentencepiece.so.0:_ZN13sentencepiece3bpe5ModelD1Ev
libsentencepiece.so.0:_ZN13sentencepiece3bpe5ModelD2Ev
libsentencepiece.so.0:_ZN13sentencepiece49ImmutableSentencePieceText_ImmutableSentencePieceC1ERKNS_31SentencePieceText_SentencePieceE
libsentencepiece.so.0:_ZN13sentencepiece49ImmutableSentencePieceText_ImmutableSentencePieceC1Ev
libsentencepiece.so.0:_ZN13sentencepiece49ImmutableSentencePieceText_ImmutableSentencePieceC2ERKNS_31SentencePieceText_SentencePieceE
libsentencepiece.so.0:_ZN13sentencepiece49ImmutableSentencePieceText_ImmutableSentencePieceC2Ev
libsentencepiece.so.0:_ZN13sentencepiece4util13StrSplitAsCSVB5cxx11ESt17basic_string_viewIcSt11char_traitsIcEE
libsentencepiece.so.0:_ZN13sentencepiece4util6Status11IgnoreErrorEv
libsentencepiece.so.0:_ZN13sentencepiece4util6Status17set_error_messageEPKc
libsentencepiece.so.0:_ZN13sentencepiece4util6StatusC1ENS0_10StatusCodeESt17basic_string_viewIcSt11char_traitsIcEE
libsentencepiece.so.0:_ZN13sentencepiece4util6StatusC1ERKS1_
libsentencepiece.so.0:_ZN13sentencepiece4util6StatusC1Ev
libsentencepiece.so.0:_ZN13sentencepiece4util6StatusC2ENS0_10StatusCodeESt17basic_string_viewIcSt11char_traitsIcEE
libsentencepiece.so.0:_ZN13sentencepiece4util6StatusC2ERKS1_
libsentencepiece.so.0:_ZN13sentencepiece4util6StatusC2Ev
libsentencepiece.so.0:_ZN13sentencepiece4util6StatusD1Ev
libsentencepiece.so.0:_ZN13sentencepiece4util6StatusD2Ev
libsentencepiece.so.0:_ZN13sentencepiece4util6StatusaSERKS1_
libsentencepiece.so.0:_ZN13sentencepiece4util8StrErrorB5cxx11Ei
libsentencepiece.so.0:_ZN13sentencepiece4word5ModelC1ERKNS_10ModelProtoE
libsentencepiece.so.0:_ZN13sentencepiece4word5ModelC2ERKNS_10ModelProtoE
libsentencepiece.so.0:_ZN13sentencepiece4word5ModelD0Ev
libsentencepiece.so.0:_ZN13sentencepiece4word5ModelD1Ev
libsentencepiece.so.0:_ZN13sentencepiece4word5ModelD2Ev
libsentencepiece.so.0:_ZN13sentencepiece5error14GetTestCounterEv
libsentencepiece.so.0:_ZN13sentencepiece5error14SetTestCounterEi
libsentencepiece.so.0:_ZN13sentencepiece5error4ExitEi
libsentencepiece.so.0:_ZN13sentencepiece5error5AbortEv
libsentencepiece.so.0:_ZN13sentencepiece6random18GetRandomGeneratorEv
libsentencepiece.so.0:_ZN13sentencepiece7logging14GetMinLogLevelEv
libsentencepiece.so.0:_ZN13sentencepiece7logging14SetMinLogLevelEi
libsentencepiece.so.0:_ZN13sentencepiece7unigram5Model9BuildTrieEPSt6vectorISt4pairISt17basic_string_viewIcSt11char_traitsIcEEiESaIS8_EE
libsentencepiece.so.0:_ZN13sentencepiece7unigram5ModelC1ERKNS_10ModelProtoE
libsentencepiece.so.0:_ZN13sentencepiece7unigram5ModelC2ERKNS_10ModelProtoE
libsentencepiece.so.0:_ZN13sentencepiece7unigram5ModelD0Ev
libsentencepiece.so.0:_ZN13sentencepiece7unigram5ModelD1Ev
libsentencepiece.so.0:_ZN13sentencepiece7unigram5ModelD2Ev
libsentencepiece.so.0:_ZN13sentencepiece7unigram7Lattice11SetSentenceESt17basic_string_viewIcSt11char_traitsIcEE
libsentencepiece.so.0:_ZN13sentencepiece7unigram7Lattice5ClearEv
libsentencepiece.so.0:_ZN13sentencepiece7unigram7Lattice5NBestEmbf
libsentencepiece.so.0:_ZN13sentencepiece7unigram7Lattice6InsertEii
libsentencepiece.so.0:_ZN13sentencepiece7unigram7Lattice6SampleEf
libsentencepiece.so.0:_ZN13sentencepiece7unigram7Lattice7NewNodeEv
libsentencepiece.so.0:_ZN13sentencepiece7unigram7Lattice7ViterbiEv
libsentencepiece.so.0:_ZN13sentencepiece7unigram7LatticeC1Ev
libsentencepiece.so.0:_ZN13sentencepiece7unigram7LatticeC2Ev
libsentencepiece.so.0:_ZN13sentencepiece7unigram7LatticeD0Ev
libsentencepiece.so.0:_ZN13sentencepiece7unigram7LatticeD1Ev
libsentencepiece.so.0:_ZN13sentencepiece7unigram7LatticeD2Ev
libsentencepiece.so.0:_ZN13sentencepiece9character5ModelC1ERKNS_10ModelProtoE
libsentencepiece.so.0:_ZN13sentencepiece9character5ModelC2ERKNS_10ModelProtoE
libsentencepiece.so.0:_ZN13sentencepiece9character5ModelD0Ev
libsentencepiece.so.0:_ZN13sentencepiece9character5ModelD1Ev
libsentencepiece.so.0:_ZN13sentencepiece9character5ModelD2Ev
libsentencepiece.so.0:_ZN4absl16ParseCommandLineEiPPc
libsentencepiece.so.0:_ZN4absl4FlagINSt7__cxx1112basic_stringIcSt11char_traitsIcESaIcEEEE16set_value_as_strERKS6_
libsentencepiece.so.0:_ZN4absl4FlagINSt7__cxx1112basic_stringIcSt11char_traitsIcESaIcEEEE9set_valueERKS6_
libsentencepiece.so.0:_ZN4absl4FlagINSt7__cxx1112basic_stringIcSt11char_traitsIcESaIcEEEEC1EPKcS9_S9_RKS6_
libsentencepiece.so.0:_ZN4absl4FlagINSt7__cxx1112basic_stringIcSt11char_traitsIcESaIcEEEEC2EPKcS9_S9_RKS6_
libsentencepiece.so.0:_ZN4absl4FlagINSt7__cxx1112basic_stringIcSt11char_traitsIcESaIcEEEED0Ev
libsentencepiece.so.0:_ZN4absl4FlagINSt7__cxx1112basic_stringIcSt11char_traitsIcESaIcEEEED1Ev
libsentencepiece.so.0:_ZN4absl4FlagINSt7__cxx1112basic_stringIcSt11char_traitsIcESaIcEEEED2Ev
libsentencepiece.so.0:_ZN4absl4FlagIbE16set_value_as_strERKNSt7__cxx1112basic_stringIcSt11char_traitsIcESaIcEEE
libsentencepiece.so.0:_ZN4absl4FlagIbE9set_valueERKb
libsentencepiece.so.0:_ZN4absl4FlagIbEC1EPKcS3_S3_RKb
libsentencepiece.so.0:_ZN4absl4FlagIbEC2EPKcS3_S3_RKb
libsentencepiece.so.0:_ZN4absl4FlagIbED0Ev
libsentencepiece.so.0:_ZN4absl4FlagIbED1Ev
libsentencepiece.so.0:_ZN4absl4FlagIbED2Ev
libsentencepiece.so.0:_ZN4absl4FlagIdE16set_value_as_strERKNSt7__cxx1112basic_stringIcSt11char_traitsIcESaIcEEE
libsentencepiece.so.0:_ZN4absl4FlagIdE9set_valueERKd
libsentencepiece.so.0:_ZN4absl4FlagIdEC1EPKcS3_S3_RKd
libsentencepiece.so.0:_ZN4absl4FlagIdEC2EPKcS3_S3_RKd
libsentencepiece.so.0:_ZN4absl4FlagIdED0Ev
libsentencepiece.so.0:_ZN4absl4FlagIdED1Ev
libsentencepiece.so.0:_ZN4absl4FlagIdED2Ev
libsentencepiece.so.0:_ZN4absl4FlagIfE16set_value_as_strERKNSt7__cxx1112basic_stringIcSt11char_traitsIcESaIcEEE
libsentencepiece.so.0:_ZN4absl4FlagIfE9set_valueERKf
libsentencepiece.so.0:_ZN4absl4FlagIfEC1EPKcS3_S3_RKf
libsentencepiece.so.0:_ZN4absl4FlagIfEC2EPKcS3_S3_RKf
libsentencepiece.so.0:_ZN4absl4FlagIfED0Ev
libsentencepiece.so.0:_ZN4absl4FlagIfED1Ev
libsentencepiece.so.0:_ZN4absl4FlagIfED2Ev
libsentencepiece.so.0:_ZN4absl4FlagIiE16set_value_as_strERKNSt7__cxx1112basic_stringIcSt11char_traitsIcESaIcEEE
libsentencepiece.so.0:_ZN4absl4FlagIiE9set_valueERKi
libsentencepiece.so.0:_ZN4absl4FlagIiEC1EPKcS3_S3_RKi
libsentencepiece.so.0:_ZN4absl4FlagIiEC2EPKcS3_S3_RKi
libsentencepiece.so.0:_ZN4absl4FlagIiED0Ev
libsentencepiece.so.0:_ZN4absl4FlagIiED1Ev
libsentencepiece.so.0:_ZN4absl4FlagIiED2Ev
libsentencepiece.so.0:_ZN4absl4FlagIjE16set_value_as_strERKNSt7__cxx1112basic_stringIcSt11char_traitsIcESaIcEEE
libsentencepiece.so.0:_ZN4absl4FlagIjE9set_valueERKj
libsentencepiece.so.0:_ZN4absl4FlagIjEC1EPKcS3_S3_RKj
libsentencepiece.so.0:_ZN4absl4FlagIjEC2EPKcS3_S3_RKj
libsentencepiece.so.0:_ZN4absl4FlagIjED0Ev
libsentencepiece.so.0:_ZN4absl4FlagIjED1Ev
libsentencepiece.so.0:_ZN4absl4FlagIjED2Ev
libsentencepiece.so.0:_ZN4absl4FlagIlE16set_value_as_strERKNSt7__cxx1112basic_stringIcSt11char_traitsIcESaIcEEE
libsentencepiece.so.0:_ZN4absl4FlagIlE9set_valueERKl
libsentencepiece.so.0:_ZN4absl4FlagIlEC1EPKcS3_S3_RKl
libsentencepiece.so.0:_ZN4absl4FlagIlEC2EPKcS3_S3_RKl
libsentencepiece.so.0:_ZN4absl4FlagIlED0Ev
libsentencepiece.so.0:_ZN4absl4FlagIlED1Ev
libsentencepiece.so.0:_ZN4absl4FlagIlED2Ev
libsentencepiece.so.0:_ZN4absl4FlagImE16set_value_as_strERKNSt7__cxx1112basic_stringIcSt11char_traitsIcESaIcEEE
libsentencepiece.so.0:_ZN4absl4FlagImE9set_valueERKm
libsentencepiece.so.0:_ZN4absl4FlagImEC1EPKcS3_S3_RKm
libsentencepiece.so.0:_ZN4absl4FlagImEC2EPKcS3_S3_RKm
libsentencepiece.so.0:_ZN4absl4FlagImED0Ev
libsentencepiece.so.0:_ZN4absl4FlagImED1Ev
libsentencepiece.so.0:_ZN4absl4FlagImED2Ev
libsentencepiece.so.0:_ZN4absl8internal12RegisterFlagERKNSt7__cxx1112basic_stringIcSt11char_traitsIcESaIcEEEPNS0_8FlagFuncE
libsentencepiece.so.0:_ZN6google8protobuf10SimpleDtoaB5cxx11Ed
libsentencepiece.so.0:_ZN6google8protobuf10SimpleFtoaB5cxx11Ef
libsentencepiece.so.0:_ZN6google8protobuf10SimpleItoaB5cxx11Ei
libsentencepiece.so.0:_ZN6google8protobuf10SimpleItoaB5cxx11Ej
libsentencepiece.so.0:_ZN6google8protobuf10SimpleItoaB5cxx11El
libsentencepiece.so.0:_ZN6google8protobuf10SimpleItoaB5cxx11Em
libsentencepiece.so.0:_ZN6google8protobuf10SimpleItoaB5cxx11Ex
libsentencepiece.so.0:_ZN6google8protobuf10SimpleItoaB5cxx11Ey
libsentencepiece.so.0:_ZN6google8protobuf11JoinStringsERKSt6vectorINSt7__cxx1112basic_stringIcSt11char_traitsIcESaIcEEESaIS7_EEPKcPS7_
libsentencepiece.so.0:_ZN6google8protobuf11LogSilencerC1Ev
libsentencepiece.so.0:_ZN6google8protobuf11LogSilencerC2Ev
libsentencepiece.so.0:_ZN6google8protobuf11LogSilencerD1Ev
libsentencepiece.so.0:_ZN6google8protobuf11LogSilencerD2Ev
libsentencepiece.so.0:_ZN6google8protobuf11MessageLite13MergeFromImplEPNS0_2io16CodedInputStreamENS1_10ParseFlagsE
libsentencepiece.so.0:_ZN6google8protobuf11MessageLite14ParseFromArrayEPKvi
libsentencepiece.so.0:_ZN6google8protobuf11MessageLite15MergeFromStringERKNSt7__cxx1112basic_stringIcSt11char_traitsIcESaIcEEE
libsentencepiece.so.0:_ZN6google8protobuf11MessageLite15ParseFromStringERKNSt7__cxx1112basic_stringIcSt11char_traitsIcESaIcEEE
libsentencepiece.so.0:_ZN6google8protobuf11MessageLite16ParseFromIstreamEPSi
libsentencepiece.so.0:_ZN6google8protobuf11MessageLite20MergeFromCodedStreamEPNS0_2io16CodedInputStreamE
libsentencepiece.so.0:_ZN6google8protobuf11MessageLite20ParseFromCodedStreamEPNS0_2io16CodedInputStreamE
libsentencepiece.so.0:_ZN6google8protobuf11MessageLite21ParsePartialFromArrayEPKvi
libsentencepiece.so.0:_ZN6google8protobuf11MessageLite22ParsePartialFromStringERKNSt7__cxx1112basic_stringIcSt11char_traitsIcESaIcEEE
libsentencepiece.so.0:_ZN6google8protobuf11MessageLite23ParseFromFileDescriptorEi
libsentencepiece.so.0:_ZN6google8protobuf11MessageLite23ParseFromZeroCopyStreamEPNS0_2io19ZeroCopyInputStreamE
libsentencepiece.so.0:_ZN6google8protobuf11MessageLite23ParsePartialFromIstreamEPSi
libsentencepiece.so.0:_ZN6google8protobuf11MessageLite27MergePartialFromCodedStreamEPNS0_2io16CodedInputStreamE
libsentencepiece.so.0:_ZN6google8protobuf11MessageLite27ParsePartialFromCodedStreamEPNS0_2io16CodedInputStreamE
libsentencepiece.so.0:_ZN6google8protobuf11MessageLite30MergeFromBoundedZeroCopyStreamEPNS0_2io19ZeroCopyInputStreamEi
libsentencepiece.so.0:_ZN6google8protobuf11MessageLite30ParseFromBoundedZeroCopyStreamEPNS0_2io19ZeroCopyInputStreamEi
libsentencepiece.so.0:_ZN6google8protobuf11MessageLite30ParsePartialFromFileDescriptorEi
libsentencepiece.so.0:_ZN6google8protobuf11MessageLite30ParsePartialFromZeroCopyStreamEPNS0_2io19ZeroCopyInputStreamE
libsentencepiece.so.0:_ZN6google8protobuf11MessageLite37MergePartialFromBoundedZeroCopyStreamEPNS0_2io19ZeroCopyInputStreamEi
libsentencepiece.so.0:_ZN6google8protobuf11MessageLite37ParsePartialFromBoundedZeroCopyStreamEPNS0_2io19ZeroCopyInputStreamEi
libsentencepiece.so.0:_ZN6google8protobuf11StringPiece14ConsumeFromEndES1_
libsentencepiece.so.0:_ZN6google8protobuf11StringPiece18LogFatalSizeTooBigEmPKc
libsentencepiece.so.0:_ZN6google8protobuf11StringPiece7ConsumeES1_
libsentencepiece.so.0:_ZN6google8protobuf11StringPieceC1ES1_l
libsentencepiece.so.0:_ZN6google8protobuf11StringPieceC1ES1_ll
libsentencepiece.so.0:_ZN6google8protobuf11StringPieceC2ES1_l
libsentencepiece.so.0:_ZN6google8protobuf11StringPieceC2ES1_ll
libsentencepiece.so.0:_ZN6google8protobuf11safe_strtobENS0_11StringPieceEPb
libsentencepiece.so.0:_ZN6google8protobuf11safe_strtodEPKcPd
libsentencepiece.so.0:_ZN6google8protobuf11safe_strtofEPKcPf
libsentencepiece.so.0:_ZN6google8protobuf12Base64EscapeENS0_11StringPieceEPNSt7__cxx1112basic_stringIcSt11char_traitsIcESaIcEEE
libsentencepiece.so.0:_ZN6google8protobuf12Base64EscapeEPKhiPNSt7__cxx1112basic_stringIcSt11char_traitsIcESaIcEEEb
libsentencepiece.so.0:_ZN6google8protobuf12Base64EscapeEPKhiPci
libsentencepiece.so.0:_ZN6google8protobuf12StringPrintfB5cxx11EPKcz
libsentencepiece.so.0:_ZN6google8protobuf12safe_strto32ERKNSt7__cxx1112basic_stringIcSt11char_traitsIcESaIcEEEPi
libsentencepiece.so.0:_ZN6google8protobuf12safe_strto64ERKNSt7__cxx1112basic_stringIcSt11char_traitsIcESaIcEEEPl
libsentencepiece.so.0:_ZN6google8protobuf13FloatToBufferEfPc
libsentencepiece.so.0:_ZN6google8protobuf13RepeatedFieldIbE10RemoveLastEv
libsentencepiece.so.0:_ZN6google8protobuf13RepeatedFieldIbE12InternalSwapEPS2_
libsentencepiece.so.0:_ZN6google8protobuf13RepeatedFieldIbE12SwapElementsEii
libsentencepiece.so.0:_ZN6google8protobuf13RepeatedFieldIbE12mutable_dataEv
libsentencepiece.so.0:_ZN6google8protobuf13RepeatedFieldIbE15ExtractSubrangeEiiPb
libsentencepiece.so.0:_ZN6google8protobuf13RepeatedFieldIbE15UnsafeArenaSwapEPS2_
libsentencepiece.so.0:_ZN6google8protobuf13RepeatedFieldIbE18AddAlreadyReservedERKb
libsentencepiece.so.0:_ZN6google8protobuf13RepeatedFieldIbE18AddAlreadyReservedEv
libsentencepiece.so.0:_ZN6google8protobuf13RepeatedFieldIbE18InternalDeallocateEPNS2_3RepEi
libsentencepiece.so.0:_ZN6google8protobuf13RepeatedFieldIbE19AddNAlreadyReservedEi
libsentencepiece.so.0:_ZN6google8protobuf13RepeatedFieldIbE2atEi
libsentencepiece.so.0:_ZN6google8protobuf13RepeatedFieldIbE3AddERKb
libsentencepiece.so.0:_ZN6google8protobuf13RepeatedFieldIbE3AddEv
libsentencepiece.so.0:_ZN6google8protobuf13RepeatedFieldIbE3SetEiRKb
libsentencepiece.so.0:_ZN6google8protobuf13RepeatedFieldIbE3endEv
libsentencepiece.so.0:_ZN6google8protobuf13RepeatedFieldIbE4SwapEPS2_
libsentencepiece.so.0:_ZN6google8protobuf13RepeatedFieldIbE4rendEv
libsentencepiece.so.0:_ZN6google8protobuf13RepeatedFieldIbE5ClearEv
libsentencepiece.so.0:_ZN6google8protobuf13RepeatedFieldIbE5beginEv
libsentencepiece.so.0:_ZN6google8protobuf13RepeatedFieldIbE5eraseEPKb
libsentencepiece.so.0:_ZN6google8protobuf13RepeatedFieldIbE5eraseEPKbS4_
libsentencepiece.so.0:_ZN6google8protobuf13RepeatedFieldIbE6ResizeEiRKb
libsentencepiece.so.0:_ZN6google8protobuf13RepeatedFieldIbE6rbeginEv
libsentencepiece.so.0:_ZN6google8protobuf13RepeatedFieldIbE7MutableEi
libsentencepiece.so.0:_ZN6google8protobuf13RepeatedFieldIbE7ReserveEi
libsentencepiece.so.0:_ZN6google8protobuf13RepeatedFieldIbE8CopyFromERKS2_
libsentencepiece.so.0:_ZN6google8protobuf13RepeatedFieldIbE8TruncateEi
libsentencepiece.so.0:_ZN6google8protobuf13RepeatedFieldIbE9CopyArrayEPbPKbi
libsentencepiece.so.0:_ZN6google8protobuf13RepeatedFieldIbE9MergeFromERKS2_
libsentencepiece.so.0:_ZN6google8protobuf13RepeatedFieldIbE9MoveArrayEPbS3_i
libsentencepiece.so.0:_ZN6google8protobuf13RepeatedFieldIbEC1EOS2_
libsentencepiece.so.0:_ZN6google8protobuf13RepeatedFieldIbEC1EPNS0_5ArenaE
libsentencepiece.so.0:_ZN6google8protobuf13RepeatedFieldIbEC1ERKS2_
libsentencepiece.so.0:_ZN6google8protobuf13RepeatedFieldIbEC1Ev
libsentencepiece.so.0:_ZN6google8protobuf13RepeatedFieldIbEC2EOS2_
libsentencepiece.so.0:_ZN6google8protobuf13RepeatedFieldIbEC2EPNS0_5ArenaE
libsentencepiece.so.0:_ZN6google8protobuf13RepeatedFieldIbEC2ERKS2_
libsentencepiece.so.0:_ZN6google8protobuf13RepeatedFieldIbEC2Ev
libsentencepiece.so.0:_ZN6google8protobuf13RepeatedFieldIbED1Ev
libsentencepiece.so.0:_ZN6google8protobuf13RepeatedFieldIbED2Ev
libsentencepiece.so.0:_ZN6google8protobuf13RepeatedFieldIbEaSEOS2_
libsentencepiece.so.0:_ZN6google8protobuf13RepeatedFieldIbEaSERKS2_
libsentencepiece.so.0:_ZN6google8protobuf13RepeatedFieldIbEixEi
libsentencepiece.so.0:_ZN6google8protobuf13RepeatedFieldIdE10RemoveLastEv
libsentencepiece.so.0:_ZN6google8protobuf13RepeatedFieldIdE12InternalSwapEPS2_
libsentencepiece.so.0:_ZN6google8protobuf13RepeatedFieldIdE12SwapElementsEii
libsentencepiece.so.0:_ZN6google8protobuf13RepeatedFieldIdE12mutable_dataEv
libsentencepiece.so.0:_ZN6google8protobuf13RepeatedFieldIdE15ExtractSubrangeEiiPd
libsentencepiece.so.0:_ZN6google8protobuf13RepeatedFieldIdE15UnsafeArenaSwapEPS2_
libsentencepiece.so.0:_ZN6google8protobuf13RepeatedFieldIdE18AddAlreadyReservedERKd
libsentencepiece.so.0:_ZN6google8protobuf13RepeatedFieldIdE18AddAlreadyReservedEv
libsentencepiece.so.0:_ZN6google8protobuf13RepeatedFieldIdE18InternalDeallocateEPNS2_3RepEi
libsentencepiece.so.0:_ZN6google8protobuf13RepeatedFieldIdE19AddNAlreadyReservedEi
libsentencepiece.so.0:_ZN6google8protobuf13RepeatedFieldIdE2atEi
libsentencepiece.so.0:_ZN6google8protobuf13RepeatedFieldIdE3AddERKd
libsentencepiece.so.0:_ZN6google8protobuf13RepeatedFieldIdE3AddEv
libsentencepiece.so.0:_ZN6google8protobuf13RepeatedFieldIdE3SetEiRKd
libsentencepiece.so.0:_ZN6google8protobuf13RepeatedFieldIdE3endEv
libsentencepiece.so.0:_ZN6google8protobuf13RepeatedFieldIdE4SwapEPS2_
libsentencepiece.so.0:_ZN6google8protobuf13RepeatedFieldIdE4rendEv
libsentencepiece.so.0:_ZN6google8protobuf13RepeatedFieldIdE5ClearEv
libsentencepiece.so.0:_ZN6google8protobuf13RepeatedFieldIdE5beginEv
libsentencepiece.so.0:_ZN6google8protobuf13RepeatedFieldIdE5eraseEPKd
libsentencepiece.so.0:_ZN6google8protobuf13RepeatedFieldIdE5eraseEPKdS4_
libsentencepiece.so.0:_ZN6google8protobuf13RepeatedFieldIdE6ResizeEiRKd
libsentencepiece.so.0:_ZN6google8protobuf13RepeatedFieldIdE6rbeginEv
libsentencepiece.so.0:_ZN6google8protobuf13RepeatedFieldIdE7MutableEi
libsentencepiece.so.0:_ZN6google8protobuf13RepeatedFieldIdE7ReserveEi
libsentencepiece.so.0:_ZN6google8protobuf13RepeatedFieldIdE8CopyFromERKS2_
libsentencepiece.so.0:_ZN6google8protobuf13RepeatedFieldIdE8TruncateEi
libsentencepiece.so.0:_ZN6google8protobuf13RepeatedFieldIdE9CopyArrayEPdPKdi
libsentencepiece.so.0:_ZN6google8protobuf13RepeatedFieldIdE9MergeFromERKS2_
libsentencepiece.so.0:_ZN6google8protobuf13RepeatedFieldIdE9MoveArrayEPdS3_i
libsentencepiece.so.0:_ZN6google8protobuf13RepeatedFieldIdEC1EOS2_
libsentencepiece.so.0:_ZN6google8protobuf13RepeatedFieldIdEC1EPNS0_5ArenaE
libsentencepiece.so.0:_ZN6google8protobuf13RepeatedFieldIdEC1ERKS2_
libsentencepiece.so.0:_ZN6google8protobuf13RepeatedFieldIdEC1Ev
libsentencepiece.so.0:_ZN6google8protobuf13RepeatedFieldIdEC2EOS2_
libsentencepiece.so.0:_ZN6google8protobuf13RepeatedFieldIdEC2EPNS0_5ArenaE
libsentencepiece.so.0:_ZN6google8protobuf13RepeatedFieldIdEC2ERKS2_
libsentencepiece.so.0:_ZN6google8protobuf13RepeatedFieldIdEC2Ev
libsentencepiece.so.0:_ZN6google8protobuf13RepeatedFieldIdED1Ev
libsentencepiece.so.0:_ZN6google8protobuf13RepeatedFieldIdED2Ev
libsentencepiece.so.0:_ZN6google8protobuf13RepeatedFieldIdEaSEOS2_
libsentencepiece.so.0:_ZN6google8protobuf13RepeatedFieldIdEaSERKS2_
libsentencepiece.so.0:_ZN6google8protobuf13RepeatedFieldIdEixEi
libsentencepiece.so.0:_ZN6google8protobuf13RepeatedFieldIfE10RemoveLastEv
libsentencepiece.so.0:_ZN6google8protobuf13RepeatedFieldIfE12InternalSwapEPS2_
libsentencepiece.so.0:_ZN6google8protobuf13RepeatedFieldIfE12SwapElementsEii
libsentencepiece.so.0:_ZN6google8protobuf13RepeatedFieldIfE12mutable_dataEv
libsentencepiece.so.0:_ZN6google8protobuf13RepeatedFieldIfE15ExtractSubrangeEiiPf
libsentencepiece.so.0:_ZN6google8protobuf13RepeatedFieldIfE15UnsafeArenaSwapEPS2_
libsentencepiece.so.0:_ZN6google8protobuf13RepeatedFieldIfE18AddAlreadyReservedERKf
libsentencepiece.so.0:_ZN6google8protobuf13RepeatedFieldIfE18AddAlreadyReservedEv
libsentencepiece.so.0:_ZN6google8protobuf13RepeatedFieldIfE18InternalDeallocateEPNS2_3RepEi
libsentencepiece.so.0:_ZN6google8protobuf13RepeatedFieldIfE19AddNAlreadyReservedEi
libsentencepiece.so.0:_ZN6google8protobuf13RepeatedFieldIfE2atEi
libsentencepiece.so.0:_ZN6google8protobuf13RepeatedFieldIfE3AddERKf
libsentencepiece.so.0:_ZN6google8protobuf13RepeatedFieldIfE3AddEv
libsentencepiece.so.0:_ZN6google8protobuf13RepeatedFieldIfE3SetEiRKf
libsentencepiece.so.0:_ZN6google8protobuf13RepeatedFieldIfE3endEv
libsentencepiece.so.0:_ZN6google8protobuf13RepeatedFieldIfE4SwapEPS2_
libsentencepiece.so.0:_ZN6google8protobuf13RepeatedFieldIfE4rendEv
libsentencepiece.so.0:_ZN6google8protobuf13RepeatedFieldIfE5ClearEv
libsentencepiece.so.0:_ZN6google8protobuf13RepeatedFieldIfE5beginEv
libsentencepiece.so.0:_ZN6google8protobuf13RepeatedFieldIfE5eraseEPKf
libsentencepiece.so.0:_ZN6google8protobuf13RepeatedFieldIfE5eraseEPKfS4_
libsentencepiece.so.0:_ZN6google8protobuf13RepeatedFieldIfE6ResizeEiRKf
libsentencepiece.so.0:_ZN6google8protobuf13RepeatedFieldIfE6rbeginEv
libsentencepiece.so.0:_ZN6google8protobuf13RepeatedFieldIfE7MutableEi
libsentencepiece.so.0:_ZN6google8protobuf13RepeatedFieldIfE7ReserveEi
libsentencepiece.so.0:_ZN6google8protobuf13RepeatedFieldIfE8CopyFromERKS2_
libsentencepiece.so.0:_ZN6google8protobuf13RepeatedFieldIfE8TruncateEi
libsentencepiece.so.0:_ZN6google8protobuf13RepeatedFieldIfE9CopyArrayEPfPKfi
libsentencepiece.so.0:_ZN6google8protobuf13RepeatedFieldIfE9MergeFromERKS2_
libsentencepiece.so.0:_ZN6google8protobuf13RepeatedFieldIfE9MoveArrayEPfS3_i
libsentencepiece.so.0:_ZN6google8protobuf13RepeatedFieldIfEC1EOS2_
libsentencepiece.so.0:_ZN6google8protobuf13RepeatedFieldIfEC1EPNS0_5ArenaE
libsentencepiece.so.0:_ZN6google8protobuf13RepeatedFieldIfEC1ERKS2_
libsentencepiece.so.0:_ZN6google8protobuf13RepeatedFieldIfEC1Ev
libsentencepiece.so.0:_ZN6google8protobuf13RepeatedFieldIfEC2EOS2_
libsentencepiece.so.0:_ZN6google8protobuf13RepeatedFieldIfEC2EPNS0_5ArenaE
libsentencepiece.so.0:_ZN6google8protobuf13RepeatedFieldIfEC2ERKS2_
libsentencepiece.so.0:_ZN6google8protobuf13RepeatedFieldIfEC2Ev
libsentencepiece.so.0:_ZN6google8protobuf13RepeatedFieldIfED1Ev
libsentencepiece.so.0:_ZN6google8protobuf13RepeatedFieldIfED2Ev
libsentencepiece.so.0:_ZN6google8protobuf13RepeatedFieldIfEaSEOS2_
libsentencepiece.so.0:_ZN6google8protobuf13RepeatedFieldIfEaSERKS2_
libsentencepiece.so.0:_ZN6google8protobuf13RepeatedFieldIfEixEi
libsentencepiece.so.0:_ZN6google8protobuf13RepeatedFieldIiE10RemoveLastEv
libsentencepiece.so.0:_ZN6google8protobuf13RepeatedFieldIiE12InternalSwapEPS2_
libsentencepiece.so.0:_ZN6google8protobuf13RepeatedFieldIiE12SwapElementsEii
libsentencepiece.so.0:_ZN6google8protobuf13RepeatedFieldIiE12mutable_dataEv
libsentencepiece.so.0:_ZN6google8protobuf13RepeatedFieldIiE15ExtractSubrangeEiiPi
libsentencepiece.so.0:_ZN6google8protobuf13RepeatedFieldIiE15UnsafeArenaSwapEPS2_
libsentencepiece.so.0:_ZN6google8protobuf13RepeatedFieldIiE18AddAlreadyReservedERKi
libsentencepiece.so.0:_ZN6google8protobuf13RepeatedFieldIiE18AddAlreadyReservedEv
libsentencepiece.so.0:_ZN6google8protobuf13RepeatedFieldIiE18InternalDeallocateEPNS2_3RepEi
libsentencepiece.so.0:_ZN6google8protobuf13RepeatedFieldIiE19AddNAlreadyReservedEi
libsentencepiece.so.0:_ZN6google8protobuf13RepeatedFieldIiE2atEi
libsentencepiece.so.0:_ZN6google8protobuf13RepeatedFieldIiE3AddERKi
libsentencepiece.so.0:_ZN6google8protobuf13RepeatedFieldIiE3AddEv
libsentencepiece.so.0:_ZN6google8protobuf13RepeatedFieldIiE3SetEiRKi
libsentencepiece.so.0:_ZN6google8protobuf13RepeatedFieldIiE3endEv
libsentencepiece.so.0:_ZN6google8protobuf13RepeatedFieldIiE4SwapEPS2_
libsentencepiece.so.0:_ZN6google8protobuf13RepeatedFieldIiE4rendEv
libsentencepiece.so.0:_ZN6google8protobuf13RepeatedFieldIiE5ClearEv
libsentencepiece.so.0:_ZN6google8protobuf13RepeatedFieldIiE5beginEv
libsentencepiece.so.0:_ZN6google8protobuf13RepeatedFieldIiE5eraseEPKi
libsentencepiece.so.0:_ZN6google8protobuf13RepeatedFieldIiE5eraseEPKiS4_
libsentencepiece.so.0:_ZN6google8protobuf13RepeatedFieldIiE6ResizeEiRKi
libsentencepiece.so.0:_ZN6google8protobuf13RepeatedFieldIiE6rbeginEv
libsentencepiece.so.0:_ZN6google8protobuf13RepeatedFieldIiE7MutableEi
libsentencepiece.so.0:_ZN6google8protobuf13RepeatedFieldIiE7ReserveEi
libsentencepiece.so.0:_ZN6google8protobuf13RepeatedFieldIiE8CopyFromERKS2_
libsentencepiece.so.0:_ZN6google8protobuf13RepeatedFieldIiE8TruncateEi
libsentencepiece.so.0:_ZN6google8protobuf13RepeatedFieldIiE9CopyArrayEPiPKii
libsentencepiece.so.0:_ZN6google8protobuf13RepeatedFieldIiE9MergeFromERKS2_
libsentencepiece.so.0:_ZN6google8protobuf13RepeatedFieldIiE9MoveArrayEPiS3_i
libsentencepiece.so.0:_ZN6google8protobuf13RepeatedFieldIiEC1EOS2_
libsentencepiece.so.0:_ZN6google8protobuf13RepeatedFieldIiEC1EPNS0_5ArenaE
libsentencepiece.so.0:_ZN6google8protobuf13RepeatedFieldIiEC1ERKS2_
libsentencepiece.so.0:_ZN6google8protobuf13RepeatedFieldIiEC1Ev
libsentencepiece.so.0:_ZN6google8protobuf13RepeatedFieldIiEC2EOS2_
libsentencepiece.so.0:_ZN6google8protobuf13RepeatedFieldIiEC2EPNS0_5ArenaE
libsentencepiece.so.0:_ZN6google8protobuf13RepeatedFieldIiEC2ERKS2_
libsentencepiece.so.0:_ZN6google8protobuf13RepeatedFieldIiEC2Ev
libsentencepiece.so.0:_ZN6google8protobuf13RepeatedFieldIiED1Ev
libsentencepiece.so.0:_ZN6google8protobuf13RepeatedFieldIiED2Ev
libsentencepiece.so.0:_ZN6google8protobuf13RepeatedFieldIiEaSEOS2_
libsentencepiece.so.0:_ZN6google8protobuf13RepeatedFieldIiEaSERKS2_
libsentencepiece.so.0:_ZN6google8protobuf13RepeatedFieldIiEixEi
libsentencepiece.so.0:_ZN6google8protobuf13RepeatedFieldIjE10RemoveLastEv
libsentencepiece.so.0:_ZN6google8protobuf13RepeatedFieldIjE12InternalSwapEPS2_
libsentencepiece.so.0:_ZN6google8protobuf13RepeatedFieldIjE12SwapElementsEii
libsentencepiece.so.0:_ZN6google8protobuf13RepeatedFieldIjE12mutable_dataEv
libsentencepiece.so.0:_ZN6google8protobuf13RepeatedFieldIjE15ExtractSubrangeEiiPj
libsentencepiece.so.0:_ZN6google8protobuf13RepeatedFieldIjE15UnsafeArenaSwapEPS2_
libsentencepiece.so.0:_ZN6google8protobuf13RepeatedFieldIjE18AddAlreadyReservedERKj
libsentencepiece.so.0:_ZN6google8protobuf13RepeatedFieldIjE18AddAlreadyReservedEv
libsentencepiece.so.0:_ZN6google8protobuf13RepeatedFieldIjE18InternalDeallocateEPNS2_3RepEi
libsentencepiece.so.0:_ZN6google8protobuf13RepeatedFieldIjE19AddNAlreadyReservedEi
libsentencepiece.so.0:_ZN6google8protobuf13RepeatedFieldIjE2atEi
libsentencepiece.so.0:_ZN6google8protobuf13RepeatedFieldIjE3AddERKj
libsentencepiece.so.0:_ZN6google8protobuf13RepeatedFieldIjE3AddEv
libsentencepiece.so.0:_ZN6google8protobuf13RepeatedFieldIjE3SetEiRKj
libsentencepiece.so.0:_ZN6google8protobuf13RepeatedFieldIjE3endEv
libsentencepiece.so.0:_ZN6google8protobuf13RepeatedFieldIjE4SwapEPS2_
libsentencepiece.so.0:_ZN6google8protobuf13RepeatedFieldIjE4rendEv
libsentencepiece.so.0:_ZN6google8protobuf13RepeatedFieldIjE5ClearEv
libsentencepiece.so.0:_ZN6google8protobuf13RepeatedFieldIjE5beginEv
libsentencepiece.so.0:_ZN6google8protobuf13RepeatedFieldIjE5eraseEPKj
libsentencepiece.so.0:_ZN6google8protobuf13RepeatedFieldIjE5eraseEPKjS4_
libsentencepiece.so.0:_ZN6google8protobuf13RepeatedFieldIjE6ResizeEiRKj
libsentencepiece.so.0:_ZN6google8protobuf13RepeatedFieldIjE6rbeginEv
libsentencepiece.so.0:_ZN6google8protobuf13RepeatedFieldIjE7MutableEi
libsentencepiece.so.0:_ZN6google8protobuf13RepeatedFieldIjE7ReserveEi
libsentencepiece.so.0:_ZN6google8protobuf13RepeatedFieldIjE8CopyFromERKS2_
libsentencepiece.so.0:_ZN6google8protobuf13RepeatedFieldIjE8TruncateEi
libsentencepiece.so.0:_ZN6google8protobuf13RepeatedFieldIjE9CopyArrayEPjPKji
libsentencepiece.so.0:_ZN6google8protobuf13RepeatedFieldIjE9MergeFromERKS2_
libsentencepiece.so.0:_ZN6google8protobuf13RepeatedFieldIjE9MoveArrayEPjS3_i
libsentencepiece.so.0:_ZN6google8protobuf13RepeatedFieldIjEC1EOS2_
libsentencepiece.so.0:_ZN6google8protobuf13RepeatedFieldIjEC1EPNS0_5ArenaE
libsentencepiece.so.0:_ZN6google8protobuf13RepeatedFieldIjEC1ERKS2_
libsentencepiece.so.0:_ZN6google8protobuf13RepeatedFieldIjEC1Ev
libsentencepiece.so.0:_ZN6google8protobuf13RepeatedFieldIjEC2EOS2_
libsentencepiece.so.0:_ZN6google8protobuf13RepeatedFieldIjEC2EPNS0_5ArenaE
libsentencepiece.so.0:_ZN6google8protobuf13RepeatedFieldIjEC2ERKS2_
libsentencepiece.so.0:_ZN6google8protobuf13RepeatedFieldIjEC2Ev
libsentencepiece.so.0:_ZN6google8protobuf13RepeatedFieldIjED1Ev
libsentencepiece.so.0:_ZN6google8protobuf13RepeatedFieldIjED2Ev
libsentencepiece.so.0:_ZN6google8protobuf13RepeatedFieldIjEaSEOS2_
libsentencepiece.so.0:_ZN6google8protobuf13RepeatedFieldIjEaSERKS2_
libsentencepiece.so.0:_ZN6google8protobuf13RepeatedFieldIjEixEi
libsentencepiece.so.0:_ZN6google8protobuf13RepeatedFieldIlE10RemoveLastEv
libsentencepiece.so.0:_ZN6google8protobuf13RepeatedFieldIlE12InternalSwapEPS2_
libsentencepiece.so.0:_ZN6google8protobuf13RepeatedFieldIlE12SwapElementsEii
libsentencepiece.so.0:_ZN6google8protobuf13RepeatedFieldIlE12mutable_dataEv
libsentencepiece.so.0:_ZN6google8protobuf13RepeatedFieldIlE15ExtractSubrangeEiiPl
libsentencepiece.so.0:_ZN6google8protobuf13RepeatedFieldIlE15UnsafeArenaSwapEPS2_
libsentencepiece.so.0:_ZN6google8protobuf13RepeatedFieldIlE18AddAlreadyReservedERKl
libsentencepiece.so.0:_ZN6google8protobuf13RepeatedFieldIlE18AddAlreadyReservedEv
libsentencepiece.so.0:_ZN6google8protobuf13RepeatedFieldIlE18InternalDeallocateEPNS2_3RepEi
libsentencepiece.so.0:_ZN6google8protobuf13RepeatedFieldIlE19AddNAlreadyReservedEi
libsentencepiece.so.0:_ZN6google8protobuf13RepeatedFieldIlE2atEi
libsentencepiece.so.0:_ZN6google8protobuf13RepeatedFieldIlE3AddERKl
libsentencepiece.so.0:_ZN6google8protobuf13RepeatedFieldIlE3AddEv
libsentencepiece.so.0:_ZN6google8protobuf13RepeatedFieldIlE3SetEiRKl
libsentencepiece.so.0:_ZN6google8protobuf13RepeatedFieldIlE3endEv
libsentencepiece.so.0:_ZN6google8protobuf13RepeatedFieldIlE4SwapEPS2_
libsentencepiece.so.0:_ZN6google8protobuf13RepeatedFieldIlE4rendEv
libsentencepiece.so.0:_ZN6google8protobuf13RepeatedFieldIlE5ClearEv
libsentencepiece.so.0:_ZN6google8protobuf13RepeatedFieldIlE5beginEv
libsentencepiece.so.0:_ZN6google8protobuf13RepeatedFieldIlE5eraseEPKl
libsentencepiece.so.0:_ZN6google8protobuf13RepeatedFieldIlE5eraseEPKlS4_
libsentencepiece.so.0:_ZN6google8protobuf13RepeatedFieldIlE6ResizeEiRKl
libsentencepiece.so.0:_ZN6google8protobuf13RepeatedFieldIlE6rbeginEv
libsentencepiece.so.0:_ZN6google8protobuf13RepeatedFieldIlE7MutableEi
libsentencepiece.so.0:_ZN6google8protobuf13RepeatedFieldIlE7ReserveEi
libsentencepiece.so.0:_ZN6google8protobuf13RepeatedFieldIlE8CopyFromERKS2_
libsentencepiece.so.0:_ZN6google8protobuf13RepeatedFieldIlE8TruncateEi
libsentencepiece.so.0:_ZN6google8protobuf13RepeatedFieldIlE9CopyArrayEPlPKli
libsentencepiece.so.0:_ZN6google8protobuf13RepeatedFieldIlE9MergeFromERKS2_
libsentencepiece.so.0:_ZN6google8protobuf13RepeatedFieldIlE9MoveArrayEPlS3_i
libsentencepiece.so.0:_ZN6google8protobuf13RepeatedFieldIlEC1EOS2_
libsentencepiece.so.0:_ZN6google8protobuf13RepeatedFieldIlEC1EPNS0_5ArenaE
libsentencepiece.so.0:_ZN6google8protobuf13RepeatedFieldIlEC1ERKS2_
libsentencepiece.so.0:_ZN6google8protobuf13RepeatedFieldIlEC1Ev
libsentencepiece.so.0:_ZN6google8protobuf13RepeatedFieldIlEC2EOS2_
libsentencepiece.so.0:_ZN6google8protobuf13RepeatedFieldIlEC2EPNS0_5ArenaE
libsentencepiece.so.0:_ZN6google8protobuf13RepeatedFieldIlEC2ERKS2_
libsentencepiece.so.0:_ZN6google8protobuf13RepeatedFieldIlEC2Ev
libsentencepiece.so.0:_ZN6google8protobuf13RepeatedFieldIlED1Ev
libsentencepiece.so.0:_ZN6google8protobuf13RepeatedFieldIlED2Ev
libsentencepiece.so.0:_ZN6google8protobuf13RepeatedFieldIlEaSEOS2_
libsentencepiece.so.0:_ZN6google8protobuf13RepeatedFieldIlEaSERKS2_
libsentencepiece.so.0:_ZN6google8protobuf13RepeatedFieldIlEixEi
libsentencepiece.so.0:_ZN6google8protobuf13RepeatedFieldImE10RemoveLastEv
libsentencepiece.so.0:_ZN6google8protobuf13RepeatedFieldImE12InternalSwapEPS2_
libsentencepiece.so.0:_ZN6google8protobuf13RepeatedFieldImE12SwapElementsEii
libsentencepiece.so.0:_ZN6google8protobuf13RepeatedFieldImE12mutable_dataEv
libsentencepiece.so.0:_ZN6google8protobuf13RepeatedFieldImE15ExtractSubrangeEiiPm
libsentencepiece.so.0:_ZN6google8protobuf13RepeatedFieldImE15UnsafeArenaSwapEPS2_
libsentencepiece.so.0:_ZN6google8protobuf13RepeatedFieldImE18AddAlreadyReservedERKm
libsentencepiece.so.0:_ZN6google8protobuf13RepeatedFieldImE18AddAlreadyReservedEv
libsentencepiece.so.0:_ZN6google8protobuf13RepeatedFieldImE18InternalDeallocateEPNS2_3RepEi
libsentencepiece.so.0:_ZN6google8protobuf13RepeatedFieldImE19AddNAlreadyReservedEi
libsentencepiece.so.0:_ZN6google8protobuf13RepeatedFieldImE2atEi
libsentencepiece.so.0:_ZN6google8protobuf13RepeatedFieldImE3AddERKm
libsentencepiece.so.0:_ZN6google8protobuf13RepeatedFieldImE3AddEv
libsentencepiece.so.0:_ZN6google8protobuf13RepeatedFieldImE3SetEiRKm
libsentencepiece.so.0:_ZN6google8protobuf13RepeatedFieldImE3endEv
libsentencepiece.so.0:_ZN6google8protobuf13RepeatedFieldImE4SwapEPS2_
libsentencepiece.so.0:_ZN6google8protobuf13RepeatedFieldImE4rendEv
libsentencepiece.so.0:_ZN6google8protobuf13RepeatedFieldImE5ClearEv
libsentencepiece.so.0:_ZN6google8protobuf13RepeatedFieldImE5beginEv
libsentencepiece.so.0:_ZN6google8protobuf13RepeatedFieldImE5eraseEPKm
libsentencepiece.so.0:_ZN6google8protobuf13RepeatedFieldImE5eraseEPKmS4_
libsentencepiece.so.0:_ZN6google8protobuf13RepeatedFieldImE6ResizeEiRKm
libsentencepiece.so.0:_ZN6google8protobuf13RepeatedFieldImE6rbeginEv
libsentencepiece.so.0:_ZN6google8protobuf13RepeatedFieldImE7MutableEi
libsentencepiece.so.0:_ZN6google8protobuf13RepeatedFieldImE7ReserveEi
libsentencepiece.so.0:_ZN6google8protobuf13RepeatedFieldImE8CopyFromERKS2_
libsentencepiece.so.0:_ZN6google8protobuf13RepeatedFieldImE8TruncateEi
libsentencepiece.so.0:_ZN6google8protobuf13RepeatedFieldImE9CopyArrayEPmPKmi
libsentencepiece.so.0:_ZN6google8protobuf13RepeatedFieldImE9MergeFromERKS2_
libsentencepiece.so.0:_ZN6google8protobuf13RepeatedFieldImE9MoveArrayEPmS3_i
libsentencepiece.so.0:_ZN6google8protobuf13RepeatedFieldImEC1EOS2_
libsentencepiece.so.0:_ZN6google8protobuf13RepeatedFieldImEC1EPNS0_5ArenaE
libsentencepiece.so.0:_ZN6google8protobuf13RepeatedFieldImEC1ERKS2_
libsentencepiece.so.0:_ZN6google8protobuf13RepeatedFieldImEC1Ev
libsentencepiece.so.0:_ZN6google8protobuf13RepeatedFieldImEC2EOS2_
libsentencepiece.so.0:_ZN6google8protobuf13RepeatedFieldImEC2EPNS0_5ArenaE
libsentencepiece.so.0:_ZN6google8protobuf13RepeatedFieldImEC2ERKS2_
libsentencepiece.so.0:_ZN6google8protobuf13RepeatedFieldImEC2Ev
libsentencepiece.so.0:_ZN6google8protobuf13RepeatedFieldImED1Ev
libsentencepiece.so.0:_ZN6google8protobuf13RepeatedFieldImED2Ev
libsentencepiece.so.0:_ZN6google8protobuf13RepeatedFieldImEaSEOS2_
libsentencepiece.so.0:_ZN6google8protobuf13RepeatedFieldImEaSERKS2_
libsentencepiece.so.0:_ZN6google8protobuf13RepeatedFieldImEixEi
libsentencepiece.so.0:_ZN6google8protobuf13SStringPrintfEPNSt7__cxx1112basic_stringIcSt11char_traitsIcESaIcEEEPKcz
libsentencepiece.so.0:_ZN6google8protobuf13SetLogHandlerEPFvNS0_8LogLevelEPKciRKNSt7__cxx1112basic_stringIcSt11char_traitsIcESaIcEEEE
libsentencepiece.so.0:_ZN6google8protobuf13StringAppendFEPNSt7__cxx1112basic_stringIcSt11char_traitsIcESaIcEEEPKcz
libsentencepiece.so.0:_ZN6google8protobuf13StringAppendVEPNSt7__cxx1112basic_stringIcSt11char_traitsIcESaIcEEEPKcP13__va_list_tag
libsentencepiece.so.0:_ZN6google8protobuf13StringReplaceERKNSt7__cxx1112basic_stringIcSt11char_traitsIcESaIcEEES8_S8_b
libsentencepiece.so.0:_ZN6google8protobuf13StringReplaceERKNSt7__cxx1112basic_stringIcSt11char_traitsIcESaIcEEES8_S8_bPS6_
libsentencepiece.so.0:_ZN6google8protobuf13safe_strtou32ERKNSt7__cxx1112basic_stringIcSt11char_traitsIcESaIcEEEPj
libsentencepiece.so.0:_ZN6google8protobuf13safe_strtou64ERKNSt7__cxx1112basic_stringIcSt11char_traitsIcESaIcEEEPm
libsentencepiece.so.0:_ZN6google8protobuf14Base64UnescapeENS0_11StringPieceEPNSt7__cxx1112basic_stringIcSt11char_traitsIcESaIcEEE
libsentencepiece.so.0:_ZN6google8protobuf14DoubleToBufferEdPc
libsentencepiece.so.0:_ZN6google8protobuf14FatalExceptionD0Ev
libsentencepiece.so.0:_ZN6google8protobuf14FatalExceptionD1Ev
libsentencepiece.so.0:_ZN6google8protobuf14FatalExceptionD2Ev
libsentencepiece.so.0:_ZN6google8protobuf15CEscapeInternalEPKciPcibb
libsentencepiece.so.0:_ZN6google8protobuf15DelocalizeRadixEPc
libsentencepiece.so.0:_ZN6google8protobuf15FastHexToBufferEiPc
libsentencepiece.so.0:_ZN6google8protobuf15StripWhitespaceEPNSt7__cxx1112basic_stringIcSt11char_traitsIcESaIcEEE
libsentencepiece.so.0:_ZN6google8protobuf15strto32_adaptorEPKcPPci
libsentencepiece.so.0:_ZN6google8protobuf16CEscapeAndAppendENS0_11StringPieceEPNSt7__cxx1112basic_stringIcSt11char_traitsIcESaIcEEE
libsentencepiece.so.0:_ZN6google8protobuf16EncodeAsUTF8CharEjPc
libsentencepiece.so.0:_ZN6google8protobuf16RepeatedPtrFieldINSt7__cxx1112basic_stringIcSt11char_traitsIcESaIcEEEE10AddClearedEPS7_
libsentencepiece.so.0:_ZN6google8protobuf16RepeatedPtrFieldINSt7__cxx1112basic_stringIcSt11char_traitsIcESaIcEEEE10RemoveLastEv
libsentencepiece.so.0:_ZN6google8protobuf16RepeatedPtrFieldINSt7__cxx1112basic_stringIcSt11char_traitsIcESaIcEEEE11ReleaseLastEv
libsentencepiece.so.0:_ZN6google8protobuf16RepeatedPtrFieldINSt7__cxx1112basic_stringIcSt11char_traitsIcESaIcEEEE11pointer_endEv
libsentencepiece.so.0:_ZN6google8protobuf16RepeatedPtrFieldINSt7__cxx1112basic_stringIcSt11char_traitsIcESaIcEEEE12AddAllocatedEPS7_
libsentencepiece.so.0:_ZN6google8protobuf16RepeatedPtrFieldINSt7__cxx1112basic_stringIcSt11char_traitsIcESaIcEEEE12InternalSwapEPS8_
libsentencepiece.so.0:_ZN6google8protobuf16RepeatedPtrFieldINSt7__cxx1112basic_stringIcSt11char_traitsIcESaIcEEEE12SwapElementsEii
libsentencepiece.so.0:_ZN6google8protobuf16RepeatedPtrFieldINSt7__cxx1112basic_stringIcSt11char_traitsIcESaIcEEEE12mutable_dataEv
libsentencepiece.so.0:_ZN6google8protobuf16RepeatedPtrFieldINSt7__cxx1112basic_stringIcSt11char_traitsIcESaIcEEEE13pointer_beginEv
libsentencepiece.so.0:_ZN6google8protobuf16RepeatedPtrFieldINSt7__cxx1112basic_stringIcSt11char_traitsIcESaIcEEEE14DeleteSubrangeEii
libsentencepiece.so.0:_ZN6google8protobuf16RepeatedPtrFieldINSt7__cxx1112basic_stringIcSt11char_traitsIcESaIcEEEE14ReleaseClearedEv
libsentencepiece.so.0:_ZN6google8protobuf16RepeatedPtrFieldINSt7__cxx1112basic_stringIcSt11char_traitsIcESaIcEEEE15ExtractSubrangeEiiPPS7_
libsentencepiece.so.0:_ZN6google8protobuf16RepeatedPtrFieldINSt7__cxx1112basic_stringIcSt11char_traitsIcESaIcEEEE15UnsafeArenaSwapEPS8_
libsentencepiece.so.0:_ZN6google8protobuf16RepeatedPtrFieldINSt7__cxx1112basic_stringIcSt11char_traitsIcESaIcEEEE22UnsafeArenaReleaseLastEv
libsentencepiece.so.0:_ZN6google8protobuf16RepeatedPtrFieldINSt7__cxx1112basic_stringIcSt11char_traitsIcESaIcEEEE23ExtractSubrangeInternalEiiPPS7_St17integral_constantIbLb0EE
libsentencepiece.so.0:_ZN6google8protobuf16RepeatedPtrFieldINSt7__cxx1112basic_stringIcSt11char_traitsIcESaIcEEEE23ExtractSubrangeInternalEiiPPS7_St17integral_constantIbLb1EE
libsentencepiece.so.0:_ZN6google8protobuf16RepeatedPtrFieldINSt7__cxx1112basic_stringIcSt11char_traitsIcESaIcEEEE23UnsafeArenaAddAllocatedEPS7_
libsentencepiece.so.0:_ZN6google8protobuf16RepeatedPtrFieldINSt7__cxx1112basic_stringIcSt11char_traitsIcESaIcEEEE26UnsafeArenaExtractSubrangeEiiPPS7_
libsentencepiece.so.0:_ZN6google8protobuf16RepeatedPtrFieldINSt7__cxx1112basic_stringIcSt11char_traitsIcESaIcEEEE2atEi
libsentencepiece.so.0:_ZN6google8protobuf16RepeatedPtrFieldINSt7__cxx1112basic_stringIcSt11char_traitsIcESaIcEEEE3AddEOS7_
libsentencepiece.so.0:_ZN6google8protobuf16RepeatedPtrFieldINSt7__cxx1112basic_stringIcSt11char_traitsIcESaIcEEEE3AddEv
libsentencepiece.so.0:_ZN6google8protobuf16RepeatedPtrFieldINSt7__cxx1112basic_stringIcSt11char_traitsIcESaIcEEEE3endEv
libsentencepiece.so.0:_ZN6google8protobuf16RepeatedPtrFieldINSt7__cxx1112basic_stringIcSt11char_traitsIcESaIcEEEE4SwapEPS8_
libsentencepiece.so.0:_ZN6google8protobuf16RepeatedPtrFieldINSt7__cxx1112basic_stringIcSt11char_traitsIcESaIcEEEE4rendEv
libsentencepiece.so.0:_ZN6google8protobuf16RepeatedPtrFieldINSt7__cxx1112basic_stringIcSt11char_traitsIcESaIcEEEE5ClearEv
libsentencepiece.so.0:_ZN6google8protobuf16RepeatedPtrFieldINSt7__cxx1112basic_stringIcSt11char_traitsIcESaIcEEEE5beginEv
libsentencepiece.so.0:_ZN6google8protobuf16RepeatedPtrFieldINSt7__cxx1112basic_stringIcSt11char_traitsIcESaIcEEEE5eraseENS0_8internal19RepeatedPtrIteratorIKS7_EE
libsentencepiece.so.0:_ZN6google8protobuf16RepeatedPtrFieldINSt7__cxx1112basic_stringIcSt11char_traitsIcESaIcEEEE5eraseENS0_8internal19RepeatedPtrIteratorIKS7_EESC_
libsentencepiece.so.0:_ZN6google8protobuf16RepeatedPtrFieldINSt7__cxx1112basic_stringIcSt11char_traitsIcESaIcEEEE6rbeginEv
libsentencepiece.so.0:_ZN6google8protobuf16RepeatedPtrFieldINSt7__cxx1112basic_stringIcSt11char_traitsIcESaIcEEEE7MutableEi
libsentencepiece.so.0:_ZN6google8protobuf16RepeatedPtrFieldINSt7__cxx1112basic_stringIcSt11char_traitsIcESaIcEEEE7ReserveEi
libsentencepiece.so.0:_ZN6google8protobuf16RepeatedPtrFieldINSt7__cxx1112basic_stringIcSt11char_traitsIcESaIcEEEE8CopyFromERKS8_
libsentencepiece.so.0:_ZN6google8protobuf16RepeatedPtrFieldINSt7__cxx1112basic_stringIcSt11char_traitsIcESaIcEEEE9MergeFromERKS8_
libsentencepiece.so.0:_ZN6google8protobuf16RepeatedPtrFieldINSt7__cxx1112basic_stringIcSt11char_traitsIcESaIcEEEEC1EOS8_
libsentencepiece.so.0:_ZN6google8protobuf16RepeatedPtrFieldINSt7__cxx1112basic_stringIcSt11char_traitsIcESaIcEEEEC1EPNS0_5ArenaE
libsentencepiece.so.0:_ZN6google8protobuf16RepeatedPtrFieldINSt7__cxx1112basic_stringIcSt11char_traitsIcESaIcEEEEC1ERKS8_
libsentencepiece.so.0:_ZN6google8protobuf16RepeatedPtrFieldINSt7__cxx1112basic_stringIcSt11char_traitsIcESaIcEEEEC1Ev
libsentencepiece.so.0:_ZN6google8protobuf16RepeatedPtrFieldINSt7__cxx1112basic_stringIcSt11char_traitsIcESaIcEEEEC2EOS8_
libsentencepiece.so.0:_ZN6google8protobuf16RepeatedPtrFieldINSt7__cxx1112basic_stringIcSt11char_traitsIcESaIcEEEEC2EPNS0_5ArenaE
libsentencepiece.so.0:_ZN6google8protobuf16RepeatedPtrFieldINSt7__cxx1112basic_stringIcSt11char_traitsIcESaIcEEEEC2ERKS8_
libsentencepiece.so.0:_ZN6google8protobuf16RepeatedPtrFieldINSt7__cxx1112basic_stringIcSt11char_traitsIcESaIcEEEEC2Ev
libsentencepiece.so.0:_ZN6google8protobuf16RepeatedPtrFieldINSt7__cxx1112basic_stringIcSt11char_traitsIcESaIcEEEED1Ev
libsentencepiece.so.0:_ZN6google8protobuf16RepeatedPtrFieldINSt7__cxx1112basic_stringIcSt11char_traitsIcESaIcEEEED2Ev
libsentencepiece.so.0:_ZN6google8protobuf16RepeatedPtrFieldINSt7__cxx1112basic_stringIcSt11char_traitsIcESaIcEEEEaSEOS8_
libsentencepiece.so.0:_ZN6google8protobuf16RepeatedPtrFieldINSt7__cxx1112basic_stringIcSt11char_traitsIcESaIcEEEEaSERKS8_
libsentencepiece.so.0:_ZN6google8protobuf16RepeatedPtrFieldINSt7__cxx1112basic_stringIcSt11char_traitsIcESaIcEEEEixEi
libsentencepiece.so.0:_ZN6google8protobuf16SplitStringUsingENS0_11StringPieceEPKcPSt6vectorINSt7__cxx1112basic_stringIcSt11char_traitsIcESaIcEEESaISA_EE
libsentencepiece.so.0:_ZN6google8protobuf16strtou32_adaptorEPKcPPci
libsentencepiece.so.0:_ZN6google8protobuf17FastHex32ToBufferEjPc
libsentencepiece.so.0:_ZN6google8protobuf17FastHex64ToBufferEmPc
libsentencepiece.so.0:_ZN6google8protobuf17FastInt32ToBufferEiPc
libsentencepiece.so.0:_ZN6google8protobuf17FastInt64ToBufferElPc
libsentencepiece.so.0:_ZN6google8protobuf17ReplaceCharactersEPNSt7__cxx1112basic_stringIcSt11char_traitsIcESaIcEEEPKcc
libsentencepiece.so.0:_ZN6google8protobuf18StringPrintfVectorEPKcRKSt6vectorINSt7__cxx1112basic_stringIcSt11char_traitsIcESaIcEEESaIS9_EE
libsentencepiece.so.0:_ZN6google8protobuf19WebSafeBase64EscapeENS0_11StringPieceEPNSt7__cxx1112basic_stringIcSt11char_traitsIcESaIcEEE
libsentencepiece.so.0:_ZN6google8protobuf19WebSafeBase64EscapeEPKhiPNSt7__cxx1112basic_stringIcSt11char_traitsIcESaIcEEEb
libsentencepiece.so.0:_ZN6google8protobuf19WebSafeBase64EscapeEPKhiPcib
libsentencepiece.so.0:_ZN6google8protobuf20Base64EscapeInternalEPKhiPNSt7__cxx1112basic_stringIcSt11char_traitsIcESaIcEEEbPKc
libsentencepiece.so.0:_ZN6google8protobuf20Base64EscapeInternalEPKhiPciPKcb
libsentencepiece.so.0:_ZN6google8protobuf21FastInt32ToBufferLeftEiPc
libsentencepiece.so.0:_ZN6google8protobuf21FastInt64ToBufferLeftElPc
libsentencepiece.so.0:_ZN6google8protobuf21SplitStringAllowEmptyENS0_11StringPieceEPKcPSt6vectorINSt7__cxx1112basic_stringIcSt11char_traitsIcESaIcEEESaISA_EE
libsentencepiece.so.0:_ZN6google8protobuf21UnescapeCEscapeStringERKNSt7__cxx1112basic_stringIcSt11char_traitsIcESaIcEEE
libsentencepiece.so.0:_ZN6google8protobuf21UnescapeCEscapeStringERKNSt7__cxx1112basic_stringIcSt11char_traitsIcESaIcEEEPS6_
libsentencepiece.so.0:_ZN6google8protobuf21UnescapeCEscapeStringERKNSt7__cxx1112basic_stringIcSt11char_traitsIcESaIcEEEPS6_PSt6vectorIS6_SaIS6_EE
libsentencepiece.so.0:_ZN6google8protobuf21WebSafeBase64UnescapeENS0_11StringPieceEPNSt7__cxx1112basic_stringIcSt11char_traitsIcESaIcEEE
libsentencepiece.so.0:_ZN6google8protobuf21WebSafeBase64UnescapeEPKciPci
libsentencepiece.so.0:_ZN6google8protobuf22Base64UnescapeInternalEPKciPciPKa
libsentencepiece.so.0:_ZN6google8protobuf22CleanStringLineEndingsEPNSt7__cxx1112basic_stringIcSt11char_traitsIcESaIcEEEb
libsentencepiece.so.0:_ZN6google8protobuf22CleanStringLineEndingsERKNSt7__cxx1112basic_stringIcSt11char_traitsIcESaIcEEEPS6_b
libsentencepiece.so.0:_ZN6google8protobuf22FastUInt32ToBufferLeftEjPc
libsentencepiece.so.0:_ZN6google8protobuf22FastUInt64ToBufferLeftEmPc
libsentencepiece.so.0:_ZN6google8protobuf22GlobalReplaceSubstringERKNSt7__cxx1112basic_stringIcSt11char_traitsIcESaIcEEES8_PS6_
libsentencepiece.so.0:_ZN6google8protobuf23InternalFastHexToBufferEmPci
libsentencepiece.so.0:_ZN6google8protobuf23ShutdownProtobufLibraryEv
libsentencepiece.so.0:_ZN6google8protobuf23UTF8FirstLetterNumBytesEPKci
libsentencepiece.so.0:_ZN6google8protobuf24UnescapeCEscapeSequencesEPKcPc
libsentencepiece.so.0:_ZN6google8protobuf24UnescapeCEscapeSequencesEPKcPcPSt6vectorINSt7__cxx1112basic_stringIcSt11char_traitsIcESaIcEEESaISA_EE
libsentencepiece.so.0:_ZN6google8protobuf25CalculateBase64EscapedLenEi
libsentencepiece.so.0:_ZN6google8protobuf25CalculateBase64EscapedLenEib
libsentencepiece.so.0:_ZN6google8protobuf2io15FileInputStream22CopyingFileInputStream4ReadEPvi
libsentencepiece.so.0:_ZN6google8protobuf2io15FileInputStream22CopyingFileInputStream4SkipEi
libsentencepiece.so.0:_ZN6google8protobuf2io15FileInputStream22CopyingFileInputStream5CloseEv
libsentencepiece.so.0:_ZN6google8protobuf2io15FileInputStream22CopyingFileInputStreamC1Ei
libsentencepiece.so.0:_ZN6google8protobuf2io15FileInputStream22CopyingFileInputStreamC2Ei
libsentencepiece.so.0:_ZN6google8protobuf2io15FileInputStream22CopyingFileInputStreamD0Ev
libsentencepiece.so.0:_ZN6google8protobuf2io15FileInputStream22CopyingFileInputStreamD1Ev
libsentencepiece.so.0:_ZN6google8protobuf2io15FileInputStream22CopyingFileInputStreamD2Ev
libsentencepiece.so.0:_ZN6google8protobuf2io15FileInputStream4NextEPPKvPi
libsentencepiece.so.0:_ZN6google8protobuf2io15FileInputStream4SkipEi
libsentencepiece.so.0:_ZN6google8protobuf2io15FileInputStream5CloseEv
libsentencepiece.so.0:_ZN6google8protobuf2io15FileInputStream6BackUpEi
libsentencepiece.so.0:_ZN6google8protobuf2io15FileInputStreamC1Eii
libsentencepiece.so.0:_ZN6google8protobuf2io15FileInputStreamC2Eii
libsentencepiece.so.0:_ZN6google8protobuf2io16ArrayInputStream4NextEPPKvPi
libsentencepiece.so.0:_ZN6google8protobuf2io16ArrayInputStream4SkipEi
libsentencepiece.so.0:_ZN6google8protobuf2io16ArrayInputStream6BackUpEi
libsentencepiece.so.0:_ZN6google8protobuf2io16ArrayInputStreamC1EPKvii
libsentencepiece.so.0:_ZN6google8protobuf2io16ArrayInputStreamC2EPKvii
libsentencepiece.so.0:_ZN6google8protobuf2io16CodedInputStream10ReadStringEPNSt7__cxx1112basic_stringIcSt11char_traitsIcESaIcEEEi
libsentencepiece.so.0:_ZN6google8protobuf2io16CodedInputStream11ReadTagSlowEv
libsentencepiece.so.0:_ZN6google8protobuf2io16CodedInputStream12SkipFallbackEii
libsentencepiece.so.0:_ZN6google8protobuf2io16CodedInputStream15ReadTagFallbackEj
libsentencepiece.so.0:_ZN6google8protobuf2io16CodedInputStream16ReadVarint32SlowEPj
libsentencepiece.so.0:_ZN6google8protobuf2io16CodedInputStream16ReadVarint64SlowEPm
libsentencepiece.so.0:_ZN6google8protobuf2io16CodedInputStream18ReadStringFallbackEPNSt7__cxx1112basic_stringIcSt11char_traitsIcESaIcEEEi
libsentencepiece.so.0:_ZN6google8protobuf2io16CodedInputStream18SetTotalBytesLimitEi
libsentencepiece.so.0:_ZN6google8protobuf2io16CodedInputStream20ReadVarint32FallbackEj
libsentencepiece.so.0:_ZN6google8protobuf2io16CodedInputStream20ReadVarint64FallbackEv
libsentencepiece.so.0:_ZN6google8protobuf2io16CodedInputStream22GetDirectBufferPointerEPPKvPi
libsentencepiece.so.0:_ZN6google8protobuf2io16CodedInputStream22ReadLengthAndPushLimitEv
libsentencepiece.so.0:_ZN6google8protobuf2io16CodedInputStream23ReadVarintSizeAsIntSlowEv
libsentencepiece.so.0:_ZN6google8protobuf2io16CodedInputStream25PrintTotalBytesLimitErrorEv
libsentencepiece.so.0:_ZN6google8protobuf2io16CodedInputStream26ReadLittleEndian32FallbackEPj
libsentencepiece.so.0:_ZN6google8protobuf2io16CodedInputStream26ReadLittleEndian64FallbackEPm
libsentencepiece.so.0:_ZN6google8protobuf2io16CodedInputStream27ReadVarintSizeAsIntFallbackEv
libsentencepiece.so.0:_ZN6google8protobuf2io16CodedInputStream28BackUpInputToCurrentPositionEv
libsentencepiece.so.0:_ZN6google8protobuf2io16CodedInputStream34DecrementRecursionDepthAndPopLimitEi
libsentencepiece.so.0:_ZN6google8protobuf2io16CodedInputStream35IncrementRecursionDepthAndPushLimitEi
libsentencepiece.so.0:_ZN6google8protobuf2io16CodedInputStream37CheckEntireMessageConsumedAndPopLimitEi
libsentencepiece.so.0:_ZN6google8protobuf2io16CodedInputStream7ReadRawEPvi
libsentencepiece.so.0:_ZN6google8protobuf2io16CodedInputStream7RefreshEv
libsentencepiece.so.0:_ZN6google8protobuf2io16CodedInputStream8PopLimitEi
libsentencepiece.so.0:_ZN6google8protobuf2io16CodedInputStream9PushLimitEi
libsentencepiece.so.0:_ZN6google8protobuf2io16CodedInputStreamD1Ev
libsentencepiece.so.0:_ZN6google8protobuf2io16CodedInputStreamD2Ev
libsentencepiece.so.0:_ZN6google8protobuf2io16FileOutputStream23CopyingFileOutputStream5CloseEv
libsentencepiece.so.0:_ZN6google8protobuf2io16FileOutputStream23CopyingFileOutputStream5WriteEPKvi
libsentencepiece.so.0:_ZN6google8protobuf2io16FileOutputStream23CopyingFileOutputStreamC1Ei
libsentencepiece.so.0:_ZN6google8protobuf2io16FileOutputStream23CopyingFileOutputStreamC2Ei
libsentencepiece.so.0:_ZN6google8protobuf2io16FileOutputStream23CopyingFileOutputStreamD0Ev
libsentencepiece.so.0:_ZN6google8protobuf2io16FileOutputStream23CopyingFileOutputStreamD1Ev
libsentencepiece.so.0:_ZN6google8protobuf2io16FileOutputStream23CopyingFileOutputStreamD2Ev
libsentencepiece.so.0:_ZN6google8protobuf2io16FileOutputStream5CloseEv
libsentencepiece.so.0:_ZN6google8protobuf2io16FileOutputStreamC1Eii
libsentencepiece.so.0:_ZN6google8protobuf2io16FileOutputStreamC2Eii
libsentencepiece.so.0:_ZN6google8protobuf2io16FileOutputStreamD0Ev
libsentencepiece.so.0:_ZN6google8protobuf2io16FileOutputStreamD1Ev
libsentencepiece.so.0:_ZN6google8protobuf2io16FileOutputStreamD2Ev
libsentencepiece.so.0:_ZN6google8protobuf2io17ArrayOutputStream4NextEPPvPi
libsentencepiece.so.0:_ZN6google8protobuf2io17ArrayOutputStream6BackUpEi
libsentencepiece.so.0:_ZN6google8protobuf2io17ArrayOutputStreamC1EPvii
libsentencepiece.so.0:_ZN6google8protobuf2io17ArrayOutputStreamC2EPvii
libsentencepiece.so.0:_ZN6google8protobuf2io17CodedOutputStream26WriteStringWithSizeToArrayERKNSt7__cxx1112basic_stringIcSt11char_traitsIcESaIcEEEPh
libsentencepiece.so.0:_ZN6google8protobuf2io17CodedOutputStreamC1EPNS1_20ZeroCopyOutputStreamEb
libsentencepiece.so.0:_ZN6google8protobuf2io17CodedOutputStreamC2EPNS1_20ZeroCopyOutputStreamEb
libsentencepiece.so.0:_ZN6google8protobuf2io17CodedOutputStreamD1Ev
libsentencepiece.so.0:_ZN6google8protobuf2io17CodedOutputStreamD2Ev
libsentencepiece.so.0:_ZN6google8protobuf2io18CopyingInputStream4SkipEi
libsentencepiece.so.0:_ZN6google8protobuf2io18IstreamInputStream25CopyingIstreamInputStream4ReadEPvi
libsentencepiece.so.0:_ZN6google8protobuf2io18IstreamInputStream25CopyingIstreamInputStreamC1EPSi
libsentencepiece.so.0:_ZN6google8protobuf2io18IstreamInputStream25CopyingIstreamInputStreamC2EPSi
libsentencepiece.so.0:_ZN6google8protobuf2io18IstreamInputStream25CopyingIstreamInputStreamD0Ev
libsentencepiece.so.0:_ZN6google8protobuf2io18IstreamInputStream25CopyingIstreamInputStreamD1Ev
libsentencepiece.so.0:_ZN6google8protobuf2io18IstreamInputStream25CopyingIstreamInputStreamD2Ev
libsentencepiece.so.0:_ZN6google8protobuf2io18IstreamInputStream4NextEPPKvPi
libsentencepiece.so.0:_ZN6google8protobuf2io18IstreamInputStream4SkipEi
libsentencepiece.so.0:_ZN6google8protobuf2io18IstreamInputStream6BackUpEi
libsentencepiece.so.0:_ZN6google8protobuf2io18IstreamInputStreamC1EPSii
libsentencepiece.so.0:_ZN6google8protobuf2io18IstreamInputStreamC2EPSii
libsentencepiece.so.0:_ZN6google8protobuf2io18StringOutputStream4NextEPPvPi
libsentencepiece.so.0:_ZN6google8protobuf2io18StringOutputStream6BackUpEi
libsentencepiece.so.0:_ZN6google8protobuf2io18StringOutputStreamC1EPNSt7__cxx1112basic_stringIcSt11char_traitsIcESaIcEEE
libsentencepiece.so.0:_ZN6google8protobuf2io18StringOutputStreamC2EPNSt7__cxx1112basic_stringIcSt11char_traitsIcESaIcEEE
libsentencepiece.so.0:_ZN6google8protobuf2io19EpsCopyOutputStream14EnableAliasingEb
libsentencepiece.so.0:_ZN6google8protobuf2io19EpsCopyOutputStream15WriteAliasedRawEPKviPh
libsentencepiece.so.0:_ZN6google8protobuf2io19EpsCopyOutputStream16WriteRawFallbackEPKviPh
libsentencepiece.so.0:_ZN6google8protobuf2io19EpsCopyOutputStream18WriteStringOutlineEjRKNSt7__cxx1112basic_stringIcSt11char_traitsIcESaIcEEEPh
libsentencepiece.so.0:_ZN6google8protobuf2io19EpsCopyOutputStream19EnsureSpaceFallbackEPh
libsentencepiece.so.0:_ZN6google8protobuf2io19EpsCopyOutputStream19FlushAndResetBufferEPh
libsentencepiece.so.0:_ZN6google8protobuf2io19EpsCopyOutputStream22GetDirectBufferPointerEPPvPiPPh
libsentencepiece.so.0:_ZN6google8protobuf2io19EpsCopyOutputStream30WriteStringMaybeAliasedOutlineEjRKNSt7__cxx1112basic_stringIcSt11char_traitsIcESaIcEEEPh
libsentencepiece.so.0:_ZN6google8protobuf2io19EpsCopyOutputStream34GetDirectBufferForNBytesAndAdvanceEiPPh
libsentencepiece.so.0:_ZN6google8protobuf2io19EpsCopyOutputStream4SkipEiPPh
libsentencepiece.so.0:_ZN6google8protobuf2io19EpsCopyOutputStream4TrimEPh
libsentencepiece.so.0:_ZN6google8protobuf2io19EpsCopyOutputStream5FlushEPh
libsentencepiece.so.0:_ZN6google8protobuf2io19LimitingInputStream4NextEPPKvPi
libsentencepiece.so.0:_ZN6google8protobuf2io19LimitingInputStream4SkipEi
libsentencepiece.so.0:_ZN6google8protobuf2io19LimitingInputStream6BackUpEi
libsentencepiece.so.0:_ZN6google8protobuf2io19LimitingInputStreamC1EPNS1_19ZeroCopyInputStreamEl
libsentencepiece.so.0:_ZN6google8protobuf2io19LimitingInputStreamC2EPNS1_19ZeroCopyInputStreamEl
libsentencepiece.so.0:_ZN6google8protobuf2io19LimitingInputStreamD0Ev
libsentencepiece.so.0:_ZN6google8protobuf2io19LimitingInputStreamD1Ev
libsentencepiece.so.0:_ZN6google8protobuf2io19LimitingInputStreamD2Ev
libsentencepiece.so.0:_ZN6google8protobuf2io19OstreamOutputStream26CopyingOstreamOutputStream5WriteEPKvi
libsentencepiece.so.0:_ZN6google8protobuf2io19OstreamOutputStream26CopyingOstreamOutputStreamC1EPSo
libsentencepiece.so.0:_ZN6google8protobuf2io19OstreamOutputStream26CopyingOstreamOutputStreamC2EPSo
libsentencepiece.so.0:_ZN6google8protobuf2io19OstreamOutputStream26CopyingOstreamOutputStreamD0Ev
libsentencepiece.so.0:_ZN6google8protobuf2io19OstreamOutputStream26CopyingOstreamOutputStreamD1Ev
libsentencepiece.so.0:_ZN6google8protobuf2io19OstreamOutputStream26CopyingOstreamOutputStreamD2Ev
libsentencepiece.so.0:_ZN6google8protobuf2io19OstreamOutputStream4NextEPPvPi
libsentencepiece.so.0:_ZN6google8protobuf2io19OstreamOutputStream6BackUpEi
libsentencepiece.so.0:_ZN6google8protobuf2io19OstreamOutputStreamC1EPSoi
libsentencepiece.so.0:_ZN6google8protobuf2io19OstreamOutputStreamC2EPSoi
libsentencepiece.so.0:_ZN6google8protobuf2io19OstreamOutputStreamD0Ev
libsentencepiece.so.0:_ZN6google8protobuf2io19OstreamOutputStreamD1Ev
libsentencepiece.so.0:_ZN6google8protobuf2io19OstreamOutputStreamD2Ev
libsentencepiece.so.0:_ZN6google8protobuf2io20ZeroCopyOutputStream15WriteAliasedRawEPKvi
libsentencepiece.so.0:_ZN6google8protobuf2io24ConcatenatingInputStream4NextEPPKvPi
libsentencepiece.so.0:_ZN6google8protobuf2io24ConcatenatingInputStream4SkipEi
libsentencepiece.so.0:_ZN6google8protobuf2io24ConcatenatingInputStream6BackUpEi
libsentencepiece.so.0:_ZN6google8protobuf2io24ConcatenatingInputStreamC1EPKPNS1_19ZeroCopyInputStreamEi
libsentencepiece.so.0:_ZN6google8protobuf2io24ConcatenatingInputStreamC2EPKPNS1_19ZeroCopyInputStreamEi
libsentencepiece.so.0:_ZN6google8protobuf2io25CopyingInputStreamAdaptor10FreeBufferEv
libsentencepiece.so.0:_ZN6google8protobuf2io25CopyingInputStreamAdaptor22AllocateBufferIfNeededEv
libsentencepiece.so.0:_ZN6google8protobuf2io25CopyingInputStreamAdaptor4NextEPPKvPi
libsentencepiece.so.0:_ZN6google8protobuf2io25CopyingInputStreamAdaptor4SkipEi
libsentencepiece.so.0:_ZN6google8protobuf2io25CopyingInputStreamAdaptor6BackUpEi
libsentencepiece.so.0:_ZN6google8protobuf2io25CopyingInputStreamAdaptorC1EPNS1_18CopyingInputStreamEi
libsentencepiece.so.0:_ZN6google8protobuf2io25CopyingInputStreamAdaptorC2EPNS1_18CopyingInputStreamEi
libsentencepiece.so.0:_ZN6google8protobuf2io25CopyingInputStreamAdaptorD0Ev
libsentencepiece.so.0:_ZN6google8protobuf2io25CopyingInputStreamAdaptorD1Ev
libsentencepiece.so.0:_ZN6google8protobuf2io25CopyingInputStreamAdaptorD2Ev
libsentencepiece.so.0:_ZN6google8protobuf2io26CopyingOutputStreamAdaptor10FreeBufferEv
libsentencepiece.so.0:_ZN6google8protobuf2io26CopyingOutputStreamAdaptor11WriteBufferEv
libsentencepiece.so.0:_ZN6google8protobuf2io26CopyingOutputStreamAdaptor15WriteAliasedRawEPKvi
libsentencepiece.so.0:_ZN6google8protobuf2io26CopyingOutputStreamAdaptor22AllocateBufferIfNeededEv
libsentencepiece.so.0:_ZN6google8protobuf2io26CopyingOutputStreamAdaptor4NextEPPvPi
libsentencepiece.so.0:_ZN6google8protobuf2io26CopyingOutputStreamAdaptor5FlushEv
libsentencepiece.so.0:_ZN6google8protobuf2io26CopyingOutputStreamAdaptor6BackUpEi
libsentencepiece.so.0:_ZN6google8protobuf2io26CopyingOutputStreamAdaptorC1EPNS1_19CopyingOutputStreamEi
libsentencepiece.so.0:_ZN6google8protobuf2io26CopyingOutputStreamAdaptorC2EPNS1_19CopyingOutputStreamEi
libsentencepiece.so.0:_ZN6google8protobuf2io26CopyingOutputStreamAdaptorD0Ev
libsentencepiece.so.0:_ZN6google8protobuf2io26CopyingOutputStreamAdaptorD1Ev
libsentencepiece.so.0:_ZN6google8protobuf2io26CopyingOutputStreamAdaptorD2Ev
libsentencepiece.so.0:_ZN6google8protobuf30WebSafeBase64EscapeWithPaddingENS0_11StringPieceEPNSt7__cxx1112basic_stringIcSt11char_traitsIcESaIcEEE
libsentencepiece.so.0:_ZN6google8protobuf4util6StatusC1ENS1_5error4CodeENS0_11StringPieceE
libsentencepiece.so.0:_ZN6google8protobuf4util6StatusC1ERKS2_
libsentencepiece.so.0:_ZN6google8protobuf4util6StatusC1Ev
libsentencepiece.so.0:_ZN6google8protobuf4util6StatusC2ENS1_5error4CodeENS0_11StringPieceE
libsentencepiece.so.0:_ZN6google8protobuf4util6StatusC2ERKS2_
libsentencepiece.so.0:_ZN6google8protobuf4util6StatusC2Ev
libsentencepiece.so.0:_ZN6google8protobuf4util6StatusaSERKS2_
libsentencepiece.so.0:_ZN6google8protobuf4util8internal14StatusOrHelper5CrashERKNS1_6StatusE
libsentencepiece.so.0:_ZN6google8protobuf4utillsERSoRKNS1_6StatusE
libsentencepiece.so.0:_ZN6google8protobuf5Arena18CreateMaybeMessageIN13sentencepiece10ModelProtoEJEEEPT_PS1_DpOT0_
libsentencepiece.so.0:_ZN6google8protobuf5Arena18CreateMaybeMessageIN13sentencepiece11TrainerSpecEJEEEPT_PS1_DpOT0_
libsentencepiece.so.0:_ZN6google8protobuf5Arena18CreateMaybeMessageIN13sentencepiece12SelfTestDataEJEEEPT_PS1_DpOT0_
libsentencepiece.so.0:_ZN6google8protobuf5Arena18CreateMaybeMessageIN13sentencepiece14NormalizerSpecEJEEEPT_PS1_DpOT0_
libsentencepiece.so.0:_ZN6google8protobuf5Arena18CreateMaybeMessageIN13sentencepiece17SentencePieceTextEJEEEPT_PS1_DpOT0_
libsentencepiece.so.0:_ZN6google8protobuf5Arena18CreateMaybeMessageIN13sentencepiece19SelfTestData_SampleEJEEEPT_PS1_DpOT0_
libsentencepiece.so.0:_ZN6google8protobuf5Arena18CreateMaybeMessageIN13sentencepiece22NBestSentencePieceTextEJEEEPT_PS1_DpOT0_
libsentencepiece.so.0:_ZN6google8protobuf5Arena18CreateMaybeMessageIN13sentencepiece24ModelProto_SentencePieceEJEEEPT_PS1_DpOT0_
libsentencepiece.so.0:_ZN6google8protobuf5Arena18CreateMaybeMessageIN13sentencepiece31SentencePieceText_SentencePieceEJEEEPT_PS1_DpOT0_
libsentencepiece.so.0:_ZN6google8protobuf5Arena21AllocateAlignedNoHookEm
libsentencepiece.so.0:_ZN6google8protobuf6StrCatB5cxx11ERKNS0_7strings8AlphaNumES4_
libsentencepiece.so.0:_ZN6google8protobuf6StrCatB5cxx11ERKNS0_7strings8AlphaNumES4_S4_
libsentencepiece.so.0:_ZN6google8protobuf6StrCatB5cxx11ERKNS0_7strings8AlphaNumES4_S4_S4_
libsentencepiece.so.0:_ZN6google8protobuf6StrCatB5cxx11ERKNS0_7strings8AlphaNumES4_S4_S4_S4_
libsentencepiece.so.0:_ZN6google8protobuf6StrCatB5cxx11ERKNS0_7strings8AlphaNumES4_S4_S4_S4_S4_
libsentencepiece.so.0:_ZN6google8protobuf6StrCatB5cxx11ERKNS0_7strings8AlphaNumES4_S4_S4_S4_S4_S4_
libsentencepiece.so.0:_ZN6google8protobuf6StrCatB5cxx11ERKNS0_7strings8AlphaNumES4_S4_S4_S4_S4_S4_S4_
libsentencepiece.so.0:_ZN6google8protobuf6StrCatB5cxx11ERKNS0_7strings8AlphaNumES4_S4_S4_S4_S4_S4_S4_S4_
libsentencepiece.so.0:_ZN6google8protobuf6ghtonlEj
libsentencepiece.so.0:_ZN6google8protobuf7CEscapeERKNSt7__cxx1112basic_stringIcSt11char_traitsIcESaIcEEE
libsentencepiece.so.0:_ZN6google8protobuf7ClosureD0Ev
libsentencepiece.so.0:_ZN6google8protobuf7ClosureD1Ev
libsentencepiece.so.0:_ZN6google8protobuf7ClosureD2Ev
libsentencepiece.so.0:_ZN6google8protobuf7strings10ByteSource6CopyToEPNS1_8ByteSinkEm
libsentencepiece.so.0:_ZN6google8protobuf7strings10CHexEscapeERKNSt7__cxx1112basic_stringIcSt11char_traitsIcESaIcEEE
libsentencepiece.so.0:_ZN6google8protobuf7strings14StringByteSink6AppendEPKcm
libsentencepiece.so.0:_ZN6google8protobuf7strings15ArrayByteSource4PeekEv
libsentencepiece.so.0:_ZN6google8protobuf7strings15ArrayByteSource4SkipEm
libsentencepiece.so.0:_ZN6google8protobuf7strings15LimitByteSource4PeekEv
libsentencepiece.so.0:_ZN6google8protobuf7strings15LimitByteSource4SkipEm
libsentencepiece.so.0:_ZN6google8protobuf7strings15LimitByteSource6CopyToEPNS1_8ByteSinkEm
libsentencepiece.so.0:_ZN6google8protobuf7strings15LimitByteSourceC1EPNS1_10ByteSourceEm
libsentencepiece.so.0:_ZN6google8protobuf7strings15LimitByteSourceC2EPNS1_10ByteSourceEm
libsentencepiece.so.0:_ZN6google8protobuf7strings15Utf8SafeCEscapeERKNSt7__cxx1112basic_stringIcSt11char_traitsIcESaIcEEE
libsentencepiece.so.0:_ZN6google8protobuf7strings20CheckedArrayByteSink6AppendEPKcm
libsentencepiece.so.0:_ZN6google8protobuf7strings20CheckedArrayByteSinkC1EPcm
libsentencepiece.so.0:_ZN6google8protobuf7strings20CheckedArrayByteSinkC2EPcm
libsentencepiece.so.0:_ZN6google8protobuf7strings20GrowingArrayByteSink11ShrinkToFitEv
libsentencepiece.so.0:_ZN6google8protobuf7strings20GrowingArrayByteSink6AppendEPKcm
libsentencepiece.so.0:_ZN6google8protobuf7strings20GrowingArrayByteSink6ExpandEm
libsentencepiece.so.0:_ZN6google8protobuf7strings20GrowingArrayByteSink9GetBufferEPm
libsentencepiece.so.0:_ZN6google8protobuf7strings20GrowingArrayByteSinkC1Em
libsentencepiece.so.0:_ZN6google8protobuf7strings20GrowingArrayByteSinkC2Em
libsentencepiece.so.0:_ZN6google8protobuf7strings20GrowingArrayByteSinkD0Ev
libsentencepiece.so.0:_ZN6google8protobuf7strings20GrowingArrayByteSinkD1Ev
libsentencepiece.so.0:_ZN6google8protobuf7strings20GrowingArrayByteSinkD2Ev
libsentencepiece.so.0:_ZN6google8protobuf7strings22UncheckedArrayByteSink6AppendEPKcm
libsentencepiece.so.0:_ZN6google8protobuf7strings8AlphaNumC1ENS1_3HexE
libsentencepiece.so.0:_ZN6google8protobuf7strings8AlphaNumC2ENS1_3HexE
libsentencepiece.so.0:_ZN6google8protobuf7strings8ByteSink5FlushEv
libsentencepiece.so.0:_ZN6google8protobuf7uint12810DivModImplES1_S1_PS1_S2_
libsentencepiece.so.0:_ZN6google8protobuf7uint128dVERKS1_
libsentencepiece.so.0:_ZN6google8protobuf7uint128rMERKS1_
libsentencepiece.so.0:_ZN6google8protobuf8internal10FormatTimeB5cxx11Eli
libsentencepiece.so.0:_ZN6google8protobuf8internal10LogMessage6FinishEv
libsentencepiece.so.0:_ZN6google8protobuf8internal10LogMessageC1ENS0_8LogLevelEPKci
libsentencepiece.so.0:_ZN6google8protobuf8internal10LogMessageC2ENS0_8LogLevelEPKci
libsentencepiece.so.0:_ZN6google8protobuf8internal10LogMessageD1Ev
libsentencepiece.so.0:_ZN6google8protobuf8internal10LogMessageD2Ev
libsentencepiece.so.0:_ZN6google8protobuf8internal10LogMessagelsEPKc
libsentencepiece.so.0:_ZN6google8protobuf8internal10LogMessagelsEPv
libsentencepiece.so.0:_ZN6google8protobuf8internal10LogMessagelsERKNS0_11StringPieceE
libsentencepiece.so.0:_ZN6google8protobuf8internal10LogMessagelsERKNS0_4util6StatusE
libsentencepiece.so.0:_ZN6google8protobuf8internal10LogMessagelsERKNS0_7uint128E
libsentencepiece.so.0:_ZN6google8protobuf8internal10LogMessagelsERKNSt7__cxx1112basic_stringIcSt11char_traitsIcESaIcEEE
libsentencepiece.so.0:_ZN6google8protobuf8internal10LogMessagelsEc
libsentencepiece.so.0:_ZN6google8protobuf8internal10LogMessagelsEd
libsentencepiece.so.0:_ZN6google8protobuf8internal10LogMessagelsEi
libsentencepiece.so.0:_ZN6google8protobuf8internal10LogMessagelsEj
libsentencepiece.so.0:_ZN6google8protobuf8internal10LogMessagelsEl
libsentencepiece.so.0:_ZN6google8protobuf8internal10LogMessagelsEm
libsentencepiece.so.0:_ZN6google8protobuf8internal10LogMessagelsEx
libsentencepiece.so.0:_ZN6google8protobuf8internal10LogMessagelsEy
libsentencepiece.so.0:_ZN6google8protobuf8internal10OnShutdownEPFvvE
libsentencepiece.so.0:_ZN6google8protobuf8internal10VerifyUTF8ENS0_11StringPieceEPKc
libsentencepiece.so.0:_ZN6google8protobuf8internal11GenericSwapEPNS0_11MessageLiteES3_
libsentencepiece.so.0:_ZN6google8protobuf8internal11InitSCCImplEPNS1_11SCCInfoBaseE
libsentencepiece.so.0:_ZN6google8protobuf8internal11LogFinisheraSERNS1_10LogMessageE
libsentencepiece.so.0:_ZN6google8protobuf8internal11SerialArena11CleanupListEv
libsentencepiece.so.0:_ZN6google8protobuf8internal11SerialArena18AddCleanupFallbackEPvPFvS3_E
libsentencepiece.so.0:_ZN6google8protobuf8internal11SerialArena19CleanupListFallbackEv
libsentencepiece.so.0:_ZN6google8protobuf8internal11SerialArena23AllocateAlignedFallbackEm
libsentencepiece.so.0:_ZN6google8protobuf8internal11SerialArena3NewEPNS2_5BlockEPvPNS1_9ArenaImplE
libsentencepiece.so.0:_ZN6google8protobuf8internal11SerialArena8NewBlockEPNS2_5BlockEmPNS1_9ArenaImplE
libsentencepiece.so.0:_ZN6google8protobuf8internal11WriteVarintEjmPNSt7__cxx1112basic_stringIcSt11char_traitsIcESaIcEEE
libsentencepiece.so.0:_ZN6google8protobuf8internal12ExtensionSet10AddMessageEihRKNS0_11MessageLiteEPKNS0_15FieldDescriptorE
libsentencepiece.so.0:_ZN6google8protobuf8internal12ExtensionSet10FindOrNullEi
libsentencepiece.so.0:_ZN6google8protobuf8internal12ExtensionSet10ParseFieldEjPNS0_2io16CodedInputStreamEPKNS0_11MessageLiteE
libsentencepiece.so.0:_ZN6google8protobuf8internal12ExtensionSet10ParseFieldEjPNS0_2io16CodedInputStreamEPKNS0_11MessageLiteEPNS3_17CodedOutputStreamE
libsentencepiece.so.0:_ZN6google8protobuf8internal12ExtensionSet10ParseFieldEjPNS0_2io16CodedInputStreamEPNS1_15ExtensionFinderEPNS1_12FieldSkipperE
libsentencepiece.so.0:_ZN6google8protobuf8internal12ExtensionSet10ParseFieldEmPKcPKNS0_11MessageLiteEPNS1_16InternalMetadataEPNS1_12ParseContextE
libsentencepiece.so.0:_ZN6google8protobuf8internal12ExtensionSet10RemoveLastEi
libsentencepiece.so.0:_ZN6google8protobuf8internal12ExtensionSet11ReleaseLastEi
libsentencepiece.so.0:_ZN6google8protobuf8internal12ExtensionSet12GrowCapacityEm
libsentencepiece.so.0:_ZN6google8protobuf8internal12ExtensionSet12SwapElementsEiii
libsentencepiece.so.0:_ZN6google8protobuf8internal12ExtensionSet13DeleteFlatMapEPKNS2_8KeyValueEt
libsentencepiece.so.0:_ZN6google8protobuf8internal12ExtensionSet13MutableStringB5cxx11EihPKNS0_15FieldDescriptorE
libsentencepiece.so.0:_ZN6google8protobuf8internal12ExtensionSet13SwapExtensionEPS2_i
libsentencepiece.so.0:_ZN6google8protobuf8internal12ExtensionSet14ClearExtensionEi
libsentencepiece.so.0:_ZN6google8protobuf8internal12ExtensionSet14MutableMessageEihRKNS0_11MessageLiteEPKNS0_15FieldDescriptorE
libsentencepiece.so.0:_ZN6google8protobuf8internal12ExtensionSet14ReleaseMessageEiRKNS0_11MessageLiteE
libsentencepiece.so.0:_ZN6google8protobuf8internal12ExtensionSet15ParseMessageSetEPNS0_2io16CodedInputStreamEPKNS0_11MessageLiteEPNSt7__cxx1112basic_stringIcSt11char_traitsIcESaIcEEE
libsentencepiece.so.0:_ZN6google8protobuf8internal12ExtensionSet15SetRepeatedBoolEiib
libsentencepiece.so.0:_ZN6google8protobuf8internal12ExtensionSet15SetRepeatedEnumEiii
libsentencepiece.so.0:_ZN6google8protobuf8internal12ExtensionSet16SetRepeatedFloatEiif
libsentencepiece.so.0:_ZN6google8protobuf8internal12ExtensionSet16SetRepeatedInt32Eiii
libsentencepiece.so.0:_ZN6google8protobuf8internal12ExtensionSet16SetRepeatedInt64Eiil
libsentencepiece.so.0:_ZN6google8protobuf8internal12ExtensionSet17MaybeNewExtensionEiPKNS0_15FieldDescriptorEPPNS2_9ExtensionE
libsentencepiece.so.0:_ZN6google8protobuf8internal12ExtensionSet17RegisterExtensionEPKNS0_11MessageLiteEihbb
libsentencepiece.so.0:_ZN6google8protobuf8internal12ExtensionSet17SetRepeatedDoubleEiid
libsentencepiece.so.0:_ZN6google8protobuf8internal12ExtensionSet17SetRepeatedUInt32Eiij
libsentencepiece.so.0:_ZN6google8protobuf8internal12ExtensionSet17SetRepeatedUInt64Eiim
libsentencepiece.so.0:_ZN6google8protobuf8internal12ExtensionSet19ParseMessageSetItemEPKcPKNS0_11MessageLiteEPNS1_16InternalMetadataEPNS1_12ParseContextE
libsentencepiece.so.0:_ZN6google8protobuf8internal12ExtensionSet19ParseMessageSetLiteEPNS0_2io16CodedInputStreamEPNS1_15ExtensionFinderEPNS1_12FieldSkipperE
libsentencepiece.so.0:_ZN6google8protobuf8internal12ExtensionSet19SetAllocatedMessageEihPKNS0_15FieldDescriptorEPNS0_11MessageLiteE
libsentencepiece.so.0:_ZN6google8protobuf8internal12ExtensionSet20FindOrNullInLargeMapEi
libsentencepiece.so.0:_ZN6google8protobuf8internal12ExtensionSet20LazyMessageExtension15UnusedKeyMethodEv
libsentencepiece.so.0:_ZN6google8protobuf8internal12ExtensionSet21MutableRepeatedStringB5cxx11Eii
libsentencepiece.so.0:_ZN6google8protobuf8internal12ExtensionSet21RegisterEnumExtensionEPKNS0_11MessageLiteEihbbPFbiE
libsentencepiece.so.0:_ZN6google8protobuf8internal12ExtensionSet22MutableRepeatedMessageEii
libsentencepiece.so.0:_ZN6google8protobuf8internal12ExtensionSet23MutableRawRepeatedFieldEi
libsentencepiece.so.0:_ZN6google8protobuf8internal12ExtensionSet23MutableRawRepeatedFieldEihbPKNS0_15FieldDescriptorE
libsentencepiece.so.0:_ZN6google8protobuf8internal12ExtensionSet23ParseMessageSetItemLiteEPNS0_2io16CodedInputStreamEPNS1_15ExtensionFinderEPNS1_12FieldSkipperE
libsentencepiece.so.0:_ZN6google8protobuf8internal12ExtensionSet24FindExtensionInfoFromTagEjPNS1_15ExtensionFinderEPiPNS1_13ExtensionInfoEPb
libsentencepiece.so.0:_ZN6google8protobuf8internal12ExtensionSet24RegisterMessageExtensionEPKNS0_11MessageLiteEihbbS5_
libsentencepiece.so.0:_ZN6google8protobuf8internal12ExtensionSet25UnsafeArenaReleaseMessageEiRKNS0_11MessageLiteE
libsentencepiece.so.0:_ZN6google8protobuf8internal12ExtensionSet26InternalExtensionMergeFromEiRKNS2_9ExtensionE
libsentencepiece.so.0:_ZN6google8protobuf8internal12ExtensionSet27ParseFieldWithExtensionInfoEibRKNS1_13ExtensionInfoEPNS0_2io16CodedInputStreamEPNS1_12FieldSkipperE
libsentencepiece.so.0:_ZN6google8protobuf8internal12ExtensionSet30UnsafeArenaSetAllocatedMessageEihPKNS0_15FieldDescriptorEPNS0_11MessageLiteE
libsentencepiece.so.0:_ZN6google8protobuf8internal12ExtensionSet32FindExtensionInfoFromFieldNumberEiiPNS1_15ExtensionFinderEPNS1_13ExtensionInfoEPb
libsentencepiece.so.0:_ZN6google8protobuf8internal12ExtensionSet4SwapEPS2_
libsentencepiece.so.0:_ZN6google8protobuf8internal12ExtensionSet5ClearEv
libsentencepiece.so.0:_ZN6google8protobuf8internal12ExtensionSet5EraseEi
libsentencepiece.so.0:_ZN6google8protobuf8internal12ExtensionSet6InsertEi
libsentencepiece.so.0:_ZN6google8protobuf8internal12ExtensionSet7AddBoolEihbbPKNS0_15FieldDescriptorE
libsentencepiece.so.0:_ZN6google8protobuf8internal12ExtensionSet7AddEnumEihbiPKNS0_15FieldDescriptorE
libsentencepiece.so.0:_ZN6google8protobuf8internal12ExtensionSet7SetBoolEihbPKNS0_15FieldDescriptorE
libsentencepiece.so.0:_ZN6google8protobuf8internal12ExtensionSet7SetEnumEihiPKNS0_15FieldDescriptorE
libsentencepiece.so.0:_ZN6google8protobuf8internal12ExtensionSet8AddFloatEihbfPKNS0_15FieldDescriptorE
libsentencepiece.so.0:_ZN6google8protobuf8internal12ExtensionSet8AddInt32EihbiPKNS0_15FieldDescriptorE
libsentencepiece.so.0:_ZN6google8protobuf8internal12ExtensionSet8AddInt64EihblPKNS0_15FieldDescriptorE
libsentencepiece.so.0:_ZN6google8protobuf8internal12ExtensionSet8SetFloatEihfPKNS0_15FieldDescriptorE
libsentencepiece.so.0:_ZN6google8protobuf8internal12ExtensionSet8SetInt32EihiPKNS0_15FieldDescriptorE
libsentencepiece.so.0:_ZN6google8protobuf8internal12ExtensionSet8SetInt64EihlPKNS0_15FieldDescriptorE
libsentencepiece.so.0:_ZN6google8protobuf8internal12ExtensionSet9AddDoubleEihbdPKNS0_15FieldDescriptorE
libsentencepiece.so.0:_ZN6google8protobuf8internal12ExtensionSet9AddStringB5cxx11EihPKNS0_15FieldDescriptorE
libsentencepiece.so.0:_ZN6google8protobuf8internal12ExtensionSet9AddUInt32EihbjPKNS0_15FieldDescriptorE
libsentencepiece.so.0:_ZN6google8protobuf8internal12ExtensionSet9AddUInt64EihbmPKNS0_15FieldDescriptorE
libsentencepiece.so.0:_ZN6google8protobuf8internal12ExtensionSet9Extension4FreeEv
libsentencepiece.so.0:_ZN6google8protobuf8internal12ExtensionSet9Extension5ClearEv
libsentencepiece.so.0:_ZN6google8protobuf8internal12ExtensionSet9MergeFromERKS2_
libsentencepiece.so.0:_ZN6google8protobuf8internal12ExtensionSet9SetDoubleEihdPKNS0_15FieldDescriptorE
libsentencepiece.so.0:_ZN6google8protobuf8internal12ExtensionSet9SetUInt32EihjPKNS0_15FieldDescriptorE
libsentencepiece.so.0:_ZN6google8protobuf8internal12ExtensionSet9SetUInt64EihmPKNS0_15FieldDescriptorE
libsentencepiece.so.0:_ZN6google8protobuf8internal12ExtensionSetC1EPNS0_5ArenaE
libsentencepiece.so.0:_ZN6google8protobuf8internal12ExtensionSetC2EPNS0_5ArenaE
libsentencepiece.so.0:_ZN6google8protobuf8internal12ExtensionSetD1Ev
libsentencepiece.so.0:_ZN6google8protobuf8internal12ExtensionSetD2Ev
libsentencepiece.so.0:_ZN6google8protobuf8internal12FieldSkipper11SkipMessageEPNS0_2io16CodedInputStreamE
libsentencepiece.so.0:_ZN6google8protobuf8internal12FieldSkipper15SkipUnknownEnumEii
libsentencepiece.so.0:_ZN6google8protobuf8internal12FieldSkipper9SkipFieldEPNS0_2io16CodedInputStreamEj
libsentencepiece.so.0:_ZN6google8protobuf8internal12ParseContext12ParseMessageEPNS0_11MessageLiteEPKc
libsentencepiece.so.0:_ZN6google8protobuf8internal12ParseContext12ParseMessageEPNS0_7MessageEPKc
libsentencepiece.so.0:_ZN6google8protobuf8internal12StringParserEPKcS3_PvPNS1_12ParseContextE
libsentencepiece.so.0:_ZN6google8protobuf8internal13DestroyStringEPKv
libsentencepiece.so.0:_ZN6google8protobuf8internal13FieldMetadata13CalculateTypeEiNS2_14FieldTypeClassE
libsentencepiece.so.0:_ZN6google8protobuf8internal13MergeFromImplILb0EEEbNS0_11StringPieceEPNS0_11MessageLiteENS4_10ParseFlagsE
libsentencepiece.so.0:_ZN6google8protobuf8internal13MergeFromImplILb0EEEbNS1_11BoundedZCISEPNS0_11MessageLiteENS4_10ParseFlagsE
libsentencepiece.so.0:_ZN6google8protobuf8internal13MergeFromImplILb0EEEbPNS0_2io19ZeroCopyInputStreamEPNS0_11MessageLiteENS6_10ParseFlagsE
libsentencepiece.so.0:_ZN6google8protobuf8internal13MergeFromImplILb1EEEbNS0_11StringPieceEPNS0_11MessageLiteENS4_10ParseFlagsE
libsentencepiece.so.0:_ZN6google8protobuf8internal13MergeFromImplILb1EEEbNS1_11BoundedZCISEPNS0_11MessageLiteENS4_10ParseFlagsE
libsentencepiece.so.0:_ZN6google8protobuf8internal13MergeFromImplILb1EEEbPNS0_2io19ZeroCopyInputStreamEPNS0_11MessageLiteENS6_10ParseFlagsE
libsentencepiece.so.0:_ZN6google8protobuf8internal13OnShutdownRunEPFvPKvES3_
libsentencepiece.so.0:_ZN6google8protobuf8internal13VerifyVersionEiiPKc
libsentencepiece.so.0:_ZN6google8protobuf8internal13VersionStringB5cxx11Ei
libsentencepiece.so.0:_ZN6google8protobuf8internal14ArenaStringPtr12ClearToEmptyEv
libsentencepiece.so.0:_ZN6google8protobuf8internal14ArenaStringPtr12SetAllocatedEPKNSt7__cxx1112basic_stringIcSt11char_traitsIcESaIcEEEPS8_PNS0_5ArenaE
libsentencepiece.so.0:_ZN6google8protobuf8internal14ArenaStringPtr13MutableNoCopyEPKNSt7__cxx1112basic_stringIcSt11char_traitsIcESaIcEEEPNS0_5ArenaE
libsentencepiece.so.0:_ZN6google8protobuf8internal14ArenaStringPtr14ClearToDefaultERKNS1_10LazyStringEPNS0_5ArenaE
libsentencepiece.so.0:_ZN6google8protobuf8internal14ArenaStringPtr17ReleaseNonDefaultEPKNSt7__cxx1112basic_stringIcSt11char_traitsIcESaIcEEEPNS0_5ArenaE
libsentencepiece.so.0:_ZN6google8protobuf8internal14ArenaStringPtr3SetENS2_12EmptyDefaultEONSt7__cxx1112basic_stringIcSt11char_traitsIcESaIcEEEPNS0_5ArenaE
libsentencepiece.so.0:_ZN6google8protobuf8internal14ArenaStringPtr3SetENS2_12EmptyDefaultERKNSt7__cxx1112basic_stringIcSt11char_traitsIcESaIcEEEPNS0_5ArenaE
libsentencepiece.so.0:_ZN6google8protobuf8internal14ArenaStringPtr3SetENS2_15NonEmptyDefaultEONSt7__cxx1112basic_stringIcSt11char_traitsIcESaIcEEEPNS0_5ArenaE
libsentencepiece.so.0:_ZN6google8protobuf8internal14ArenaStringPtr3SetENS2_15NonEmptyDefaultERKNSt7__cxx1112basic_stringIcSt11char_traitsIcESaIcEEEPNS0_5ArenaE
libsentencepiece.so.0:_ZN6google8protobuf8internal14ArenaStringPtr3SetEPKNSt7__cxx1112basic_stringIcSt11char_traitsIcESaIcEEEOS8_PNS0_5ArenaE
libsentencepiece.so.0:_ZN6google8protobuf8internal14ArenaStringPtr3SetEPKNSt7__cxx1112basic_stringIcSt11char_traitsIcESaIcEEERS9_PNS0_5ArenaE
libsentencepiece.so.0:_ZN6google8protobuf8internal14ArenaStringPtr7DestroyENS2_12EmptyDefaultEPNS0_5ArenaE
libsentencepiece.so.0:_ZN6google8protobuf8internal14ArenaStringPtr7DestroyENS2_15NonEmptyDefaultEPNS0_5ArenaE
libsentencepiece.so.0:_ZN6google8protobuf8internal14ArenaStringPtr7DestroyEPKNSt7__cxx1112basic_stringIcSt11char_traitsIcESaIcEEEPNS0_5ArenaE
libsentencepiece.so.0:_ZN6google8protobuf8internal14ArenaStringPtr7MutableB5cxx11ENS2_12EmptyDefaultEPNS0_5ArenaE
libsentencepiece.so.0:_ZN6google8protobuf8internal14ArenaStringPtr7MutableB5cxx11ERKNS1_10LazyStringEPNS0_5ArenaE
libsentencepiece.so.0:_ZN6google8protobuf8internal14ArenaStringPtr7ReleaseEPKNSt7__cxx1112basic_stringIcSt11char_traitsIcESaIcEEEPNS0_5ArenaE
libsentencepiece.so.0:_ZN6google8protobuf8internal14DestroyMessageEPKv
libsentencepiece.so.0:_ZN6google8protobuf8internal14GetCurrentTimeEPlPi
libsentencepiece.so.0:_ZN6google8protobuf8internal14LookUpEnumNameEPKNS1_9EnumEntryEPKimi
libsentencepiece.so.0:_ZN6google8protobuf8internal14NoLocaleStrtodEPKcPPc
libsentencepiece.so.0:_ZN6google8protobuf8internal14NullLogHandlerENS0_8LogLevelEPKciRKNSt7__cxx1112basic_stringIcSt11char_traitsIcESaIcEEE
libsentencepiece.so.0:_ZN6google8protobuf8internal14WireFormatLite10SInt32SizeERKNS0_13RepeatedFieldIiEE
libsentencepiece.so.0:_ZN6google8protobuf8internal14WireFormatLite10SInt64SizeERKNS0_13RepeatedFieldIlEE
libsentencepiece.so.0:_ZN6google8protobuf8internal14WireFormatLite10UInt32SizeERKNS0_13RepeatedFieldIjEE
libsentencepiece.so.0:_ZN6google8protobuf8internal14WireFormatLite10UInt64SizeERKNS0_13RepeatedFieldImEE
libsentencepiece.so.0:_ZN6google8protobuf8internal14WireFormatLite10WriteBytesEiRKNSt7__cxx1112basic_stringIcSt11char_traitsIcESaIcEEEPNS0_2io17CodedOutputStreamE
libsentencepiece.so.0:_ZN6google8protobuf8internal14WireFormatLite10WriteFloatEifPNS0_2io17CodedOutputStreamE
libsentencepiece.so.0:_ZN6google8protobuf8internal14WireFormatLite10WriteGroupEiRKNS0_11MessageLiteEPNS0_2io17CodedOutputStreamE
libsentencepiece.so.0:_ZN6google8protobuf8internal14WireFormatLite10WriteInt32EiiPNS0_2io17CodedOutputStreamE
libsentencepiece.so.0:_ZN6google8protobuf8internal14WireFormatLite10WriteInt64EilPNS0_2io17CodedOutputStreamE
libsentencepiece.so.0:_ZN6google8protobuf8internal14WireFormatLite11SkipMessageEPNS0_2io16CodedInputStreamE
libsentencepiece.so.0:_ZN6google8protobuf8internal14WireFormatLite11SkipMessageEPNS0_2io16CodedInputStreamEPNS3_17CodedOutputStreamE
libsentencepiece.so.0:_ZN6google8protobuf8internal14WireFormatLite11WriteDoubleEidPNS0_2io17CodedOutputStreamE
libsentencepiece.so.0:_ZN6google8protobuf8internal14WireFormatLite11WriteSInt32EiiPNS0_2io17CodedOutputStreamE
libsentencepiece.so.0:_ZN6google8protobuf8internal14WireFormatLite11WriteSInt64EilPNS0_2io17CodedOutputStreamE
libsentencepiece.so.0:_ZN6google8protobuf8internal14WireFormatLite11WriteStringEiRKNSt7__cxx1112basic_stringIcSt11char_traitsIcESaIcEEEPNS0_2io17CodedOutputStreamE
libsentencepiece.so.0:_ZN6google8protobuf8internal14WireFormatLite11WriteUInt32EijPNS0_2io17CodedOutputStreamE
libsentencepiece.so.0:_ZN6google8protobuf8internal14WireFormatLite11WriteUInt64EimPNS0_2io17CodedOutputStreamE
libsentencepiece.so.0:_ZN6google8protobuf8internal14WireFormatLite12WriteFixed32EijPNS0_2io17CodedOutputStreamE
libsentencepiece.so.0:_ZN6google8protobuf8internal14WireFormatLite12WriteFixed64EimPNS0_2io17CodedOutputStreamE
libsentencepiece.so.0:_ZN6google8protobuf8internal14WireFormatLite12WriteMessageEiRKNS0_11MessageLiteEPNS0_2io17CodedOutputStreamE
libsentencepiece.so.0:_ZN6google8protobuf8internal14WireFormatLite13WriteSFixed32EiiPNS0_2io17CodedOutputStreamE
libsentencepiece.so.0:_ZN6google8protobuf8internal14WireFormatLite13WriteSFixed64EilPNS0_2io17CodedOutputStreamE
libsentencepiece.so.0:_ZN6google8protobuf8internal14WireFormatLite14WriteBoolArrayEPKbiPNS0_2io17CodedOutputStreamE
libsentencepiece.so.0:_ZN6google8protobuf8internal14WireFormatLite15WriteFloatArrayEPKfiPNS0_2io17CodedOutputStreamE
libsentencepiece.so.0:_ZN6google8protobuf8internal14WireFormatLite16VerifyUtf8StringEPKciNS2_9OperationES4_
libsentencepiece.so.0:_ZN6google8protobuf8internal14WireFormatLite16WriteDoubleArrayEPKdiPNS0_2io17CodedOutputStreamE
libsentencepiece.so.0:_ZN6google8protobuf8internal14WireFormatLite17WriteFixed32ArrayEPKjiPNS0_2io17CodedOutputStreamE
libsentencepiece.so.0:_ZN6google8protobuf8internal14WireFormatLite17WriteFixed64ArrayEPKmiPNS0_2io17CodedOutputStreamE
libsentencepiece.so.0:_ZN6google8protobuf8internal14WireFormatLite18WriteSFixed32ArrayEPKiiPNS0_2io17CodedOutputStreamE
libsentencepiece.so.0:_ZN6google8protobuf8internal14WireFormatLite18WriteSFixed64ArrayEPKliPNS0_2io17CodedOutputStreamE
libsentencepiece.so.0:_ZN6google8protobuf8internal14WireFormatLite22WriteBytesMaybeAliasedEiRKNSt7__cxx1112basic_stringIcSt11char_traitsIcESaIcEEEPNS0_2io17CodedOutputStreamE
libsentencepiece.so.0:_ZN6google8protobuf8internal14WireFormatLite22WriteGroupMaybeToArrayEiRKNS0_11MessageLiteEPNS0_2io17CodedOutputStreamE
libsentencepiece.so.0:_ZN6google8protobuf8internal14WireFormatLite23WriteStringMaybeAliasedEiRKNSt7__cxx1112basic_stringIcSt11char_traitsIcESaIcEEEPNS0_2io17CodedOutputStreamE
libsentencepiece.so.0:_ZN6google8protobuf8internal14WireFormatLite24WriteMessageMaybeToArrayEiRKNS0_11MessageLiteEPNS0_2io17CodedOutputStreamE
libsentencepiece.so.0:_ZN6google8protobuf8internal14WireFormatLite27WriteSubMessageMaybeToArrayEiRKNS0_11MessageLiteEPNS0_2io17CodedOutputStreamE
libsentencepiece.so.0:_ZN6google8protobuf8internal14WireFormatLite30ReadPackedEnumPreserveUnknownsEPNS0_2io16CodedInputStreamEiPFbiEPNS3_17CodedOutputStreamEPNS0_13RepeatedFieldIiEE
libsentencepiece.so.0:_ZN6google8protobuf8internal14WireFormatLite8EnumSizeERKNS0_13RepeatedFieldIiEE
libsentencepiece.so.0:_ZN6google8protobuf8internal14WireFormatLite9Int32SizeERKNS0_13RepeatedFieldIiEE
libsentencepiece.so.0:_ZN6google8protobuf8internal14WireFormatLite9Int64SizeERKNS0_13RepeatedFieldIlEE
libsentencepiece.so.0:_ZN6google8protobuf8internal14WireFormatLite9ReadBytesEPNS0_2io16CodedInputStreamEPNSt7__cxx1112basic_stringIcSt11char_traitsIcESaIcEEE
libsentencepiece.so.0:_ZN6google8protobuf8internal14WireFormatLite9ReadBytesEPNS0_2io16CodedInputStreamEPPNSt7__cxx1112basic_stringIcSt11char_traitsIcESaIcEEE
libsentencepiece.so.0:_ZN6google8protobuf8internal14WireFormatLite9SkipFieldEPNS0_2io16CodedInputStreamEj
libsentencepiece.so.0:_ZN6google8protobuf8internal14WireFormatLite9SkipFieldEPNS0_2io16CodedInputStreamEjPNS3_17CodedOutputStreamE
libsentencepiece.so.0:_ZN6google8protobuf8internal14WireFormatLite9WriteBoolEibPNS0_2io17CodedOutputStreamE
libsentencepiece.so.0:_ZN6google8protobuf8internal14WireFormatLite9WriteEnumEiiPNS0_2io17CodedOutputStreamE
libsentencepiece.so.0:_ZN6google8protobuf8internal15ExtensionFinderD0Ev
libsentencepiece.so.0:_ZN6google8protobuf8internal15ExtensionFinderD1Ev
libsentencepiece.so.0:_ZN6google8protobuf8internal15ExtensionFinderD2Ev
libsentencepiece.so.0:_ZN6google8protobuf8internal15LookUpEnumValueEPKNS1_9EnumEntryEmNS0_11StringPieceEPi
libsentencepiece.so.0:_ZN6google8protobuf8internal15ReadTagFallbackEPKcj
libsentencepiece.so.0:_ZN6google8protobuf8internal15UTF8GenericScanEPKNS1_19UTF8StateMachineObjEPKciPi
libsentencepiece.so.0:_ZN6google8protobuf8internal16FunctionClosure0D0Ev
libsentencepiece.so.0:_ZN6google8protobuf8internal16FunctionClosure0D1Ev
libsentencepiece.so.0:_ZN6google8protobuf8internal16FunctionClosure0D2Ev
libsentencepiece.so.0:_ZN6google8protobuf8internal16PackedBoolParserEPvPKcPNS1_12ParseContextE
libsentencepiece.so.0:_ZN6google8protobuf8internal16PackedEnumParserEPvPKcPNS1_12ParseContextE
libsentencepiece.so.0:_ZN6google8protobuf8internal16ReadSizeFallbackEPKcj
libsentencepiece.so.0:_ZN6google8protobuf8internal17DateTimeToSecondsERKNS1_8DateTimeEPl
libsentencepiece.so.0:_ZN6google8protobuf8internal17DefaultLogHandlerENS0_8LogLevelEPKciRKNSt7__cxx1112basic_stringIcSt11char_traitsIcESaIcEEE
libsentencepiece.so.0:_ZN6google8protobuf8internal17PackedFloatParserEPvPKcPNS1_12ParseContextE
libsentencepiece.so.0:_ZN6google8protobuf8internal17PackedInt32ParserEPvPKcPNS1_12ParseContextE
libsentencepiece.so.0:_ZN6google8protobuf8internal17PackedInt64ParserEPvPKcPNS1_12ParseContextE
libsentencepiece.so.0:_ZN6google8protobuf8internal17PrintUTF8ErrorLogEPKcS3_b
libsentencepiece.so.0:_ZN6google8protobuf8internal17SecondsToDateTimeElPNS1_8DateTimeE
libsentencepiece.so.0:_ZN6google8protobuf8internal17SerializeInternalEPKhPKNS1_13FieldMetadataEiPNS0_2io17CodedOutputStreamE
libsentencepiece.so.0:_ZN6google8protobuf8internal17UnknownFieldParseEjPNSt7__cxx1112basic_stringIcSt11char_traitsIcESaIcEEEPKcPNS1_12ParseContextE
libsentencepiece.so.0:_ZN6google8protobuf8internal17VarintParseSlow32EPKcj
libsentencepiece.so.0:_ZN6google8protobuf8internal17VarintParseSlow64EPKcj
libsentencepiece.so.0:_ZN6google8protobuf8internal18EpsCopyInputStream12DoneFallbackEii
libsentencepiece.so.0:_ZN6google8protobuf8internal18EpsCopyInputStream12SkipFallbackEPKci
libsentencepiece.so.0:_ZN6google8protobuf8internal18EpsCopyInputStream18ReadStringFallbackEPKciPNSt7__cxx1112basic_stringIcSt11char_traitsIcESaIcEEE
libsentencepiece.so.0:_ZN6google8protobuf8internal18EpsCopyInputStream20AppendStringFallbackEPKciPNSt7__cxx1112basic_stringIcSt11char_traitsIcESaIcEEE
libsentencepiece.so.0:_ZN6google8protobuf8internal18EpsCopyInputStream4NextEv
libsentencepiece.so.0:_ZN6google8protobuf8internal18EpsCopyInputStream8InitFromEPNS0_2io19ZeroCopyInputStreamE
libsentencepiece.so.0:_ZN6google8protobuf8internal18GenericTypeHandlerINS0_11MessageLiteEE16NewFromPrototypeEPKS3_PNS0_5ArenaE
libsentencepiece.so.0:_ZN6google8protobuf8internal18GenericTypeHandlerINS0_11MessageLiteEE5MergeERKS3_PS3_
libsentencepiece.so.0:_ZN6google8protobuf8internal18GenericTypeHandlerINSt7__cxx1112basic_stringIcSt11char_traitsIcESaIcEEEE5MergeERKS8_PS8_
libsentencepiece.so.0:_ZN6google8protobuf8internal18PackedDoubleParserEPvPKcPNS1_12ParseContextE
libsentencepiece.so.0:_ZN6google8protobuf8internal18PackedSInt32ParserEPvPKcPNS1_12ParseContextE
libsentencepiece.so.0:_ZN6google8protobuf8internal18PackedSInt64ParserEPvPKcPNS1_12ParseContextE
libsentencepiece.so.0:_ZN6google8protobuf8internal18PackedUInt32ParserEPvPKcPNS1_12ParseContextE
libsentencepiece.so.0:_ZN6google8protobuf8internal18PackedUInt64ParserEPvPKcPNS1_12ParseContextE
libsentencepiece.so.0:_ZN6google8protobuf8internal19ExtensionSerializerEPKhjjjPNS0_2io17CodedOutputStreamE
libsentencepiece.so.0:_ZN6google8protobuf8internal19ImplicitWeakMessage14_InternalParseEPKcPNS1_12ParseContextE
libsentencepiece.so.0:_ZN6google8protobuf8internal19ImplicitWeakMessage16default_instanceEv
libsentencepiece.so.0:_ZN6google8protobuf8internal19PackedFixed32ParserEPvPKcPNS1_12ParseContextE
libsentencepiece.so.0:_ZN6google8protobuf8internal19PackedFixed64ParserEPvPKcPNS1_12ParseContextE
libsentencepiece.so.0:_ZN6google8protobuf8internal19arena_delete_objectINS0_11MessageLiteEEEvPv
libsentencepiece.so.0:_ZN6google8protobuf8internal19arena_delete_objectINSt7__cxx1112basic_stringIcSt11char_traitsIcESaIcEEEEEvPv
libsentencepiece.so.0:_ZN6google8protobuf8internal20PackedSFixed32ParserEPvPKcPNS1_12ParseContextE
libsentencepiece.so.0:_ZN6google8protobuf8internal20PackedSFixed64ParserEPvPKcPNS1_12ParseContextE
libsentencepiece.so.0:_ZN6google8protobuf8internal20RepeatedPtrFieldBase14InternalExtendEi
libsentencepiece.so.0:_ZN6google8protobuf8internal20RepeatedPtrFieldBase18MergeFromInnerLoopINS0_16RepeatedPtrFieldIN13sentencepiece17SentencePieceTextEE11TypeHandlerEEEvPPvSA_ii
libsentencepiece.so.0:_ZN6google8protobuf8internal20RepeatedPtrFieldBase18MergeFromInnerLoopINS0_16RepeatedPtrFieldIN13sentencepiece19SelfTestData_SampleEE11TypeHandlerEEEvPPvSA_ii
libsentencepiece.so.0:_ZN6google8protobuf8internal20RepeatedPtrFieldBase18MergeFromInnerLoopINS0_16RepeatedPtrFieldIN13sentencepiece24ModelProto_SentencePieceEE11TypeHandlerEEEvPPvSA_ii
libsentencepiece.so.0:_ZN6google8protobuf8internal20RepeatedPtrFieldBase18MergeFromInnerLoopINS0_16RepeatedPtrFieldIN13sentencepiece31SentencePieceText_SentencePieceEE11TypeHandlerEEEvPPvSA_ii
libsentencepiece.so.0:_ZN6google8protobuf8internal20RepeatedPtrFieldBase18MergeFromInnerLoopINS0_16RepeatedPtrFieldINSt7__cxx1112basic_stringIcSt11char_traitsIcESaIcEEEE11TypeHandlerEEEvPPvSE_ii
libsentencepiece.so.0:_ZN6google8protobuf8internal20RepeatedPtrFieldBase7AddWeakEPKNS0_11MessageLiteE
libsentencepiece.so.0:_ZN6google8protobuf8internal20RepeatedPtrFieldBase7ReserveEi
libsentencepiece.so.0:_ZN6google8protobuf8internal20RepeatedPtrFieldBase8CloseGapEii
libsentencepiece.so.0:_ZN6google8protobuf8internal20WriteLengthDelimitedEjNS0_11StringPieceEPNSt7__cxx1112basic_stringIcSt11char_traitsIcESaIcEEE
libsentencepiece.so.0:_ZN6google8protobuf8internal21ArenaMetricsCollectorD0Ev
libsentencepiece.so.0:_ZN6google8protobuf8internal21ArenaMetricsCollectorD1Ev
libsentencepiece.so.0:_ZN6google8protobuf8internal21ArenaMetricsCollectorD2Ev
libsentencepiece.so.0:_ZN6google8protobuf8internal21InitializeEnumStringsEPKNS1_9EnumEntryEPKimPNS1_21ExplicitlyConstructedINSt7__cxx1112basic_stringIcSt11char_traitsIcESaIcEEEEE
libsentencepiece.so.0:_ZN6google8protobuf8internal21UnknownGroupLiteParseEPNSt7__cxx1112basic_stringIcSt11char_traitsIcESaIcEEEPKcPNS1_12ParseContextE
libsentencepiece.so.0:_ZN6google8protobuf8internal21arena_destruct_objectINS0_13RepeatedFieldIbEEEEvPv
libsentencepiece.so.0:_ZN6google8protobuf8internal21arena_destruct_objectINS0_13RepeatedFieldIdEEEEvPv
libsentencepiece.so.0:_ZN6google8protobuf8internal21arena_destruct_objectINS0_13RepeatedFieldIfEEEEvPv
libsentencepiece.so.0:_ZN6google8protobuf8internal21arena_destruct_objectINS0_13RepeatedFieldIiEEEEvPv
libsentencepiece.so.0:_ZN6google8protobuf8internal21arena_destruct_objectINS0_13RepeatedFieldIjEEEEvPv
libsentencepiece.so.0:_ZN6google8protobuf8internal21arena_destruct_objectINS0_13RepeatedFieldIlEEEEvPv
libsentencepiece.so.0:_ZN6google8protobuf8internal21arena_destruct_objectINS0_13RepeatedFieldImEEEEvPv
libsentencepiece.so.0:_ZN6google8protobuf8internal21arena_destruct_objectINS0_16RepeatedPtrFieldINS0_11MessageLiteEEEEEvPv
libsentencepiece.so.0:_ZN6google8protobuf8internal21arena_destruct_objectINS0_16RepeatedPtrFieldINSt7__cxx1112basic_stringIcSt11char_traitsIcESaIcEEEEEEEvPv
libsentencepiece.so.0:_ZN6google8protobuf8internal21arena_destruct_objectINS1_16InternalMetadata9ContainerINSt7__cxx1112basic_stringIcSt11char_traitsIcESaIcEEEEEEEvPv
libsentencepiece.so.0:_ZN6google8protobuf8internal21arena_destruct_objectINS1_19ImplicitWeakMessageEEEvPv
libsentencepiece.so.0:_ZN6google8protobuf8internal21arena_destruct_objectINSt7__cxx1112basic_stringIcSt11char_traitsIcESaIcEEEEEvPv
libsentencepiece.so.0:_ZN6google8protobuf8internal21arena_destruct_objectISt3mapIiNS1_12ExtensionSet9ExtensionESt4lessIiESaISt4pairIKiS5_EEEEEvPv
libsentencepiece.so.0:_ZN6google8protobuf8internal23GetOwnedMessageInternalEPNS0_5ArenaEPNS0_11MessageLiteES3_
libsentencepiece.so.0:_ZN6google8protobuf8internal23IsStructurallyValidUTF8EPKci
libsentencepiece.so.0:_ZN6google8protobuf8internal23SerializeMessageNoTableEPKNS0_11MessageLiteEPNS0_2io17CodedOutputStreamE
libsentencepiece.so.0:_ZN6google8protobuf8internal23SerializeMessageNoTableEPKNS0_11MessageLiteEPNS1_11ArrayOutputE
libsentencepiece.so.0:_ZN6google8protobuf8internal23SerializeNotImplementedEi
libsentencepiece.so.0:_ZN6google8protobuf8internal24GeneratedExtensionFinder4FindEiPNS1_13ExtensionInfoE
libsentencepiece.so.0:_ZN6google8protobuf8internal24InitProtobufDefaultsSlowEv
libsentencepiece.so.0:_ZN6google8protobuf8internal24InlineGreedyStringParserEPNSt7__cxx1112basic_stringIcSt11char_traitsIcESaIcEEEPKcPNS1_12ParseContextE
libsentencepiece.so.0:_ZN6google8protobuf8internal24RepeatedStringTypeTraits23GetDefaultRepeatedFieldB5cxx11Ev
libsentencepiece.so.0:_ZN6google8protobuf8internal24SerializeInternalToArrayEPKhPKNS1_13FieldMetadataEibPh
libsentencepiece.so.0:_ZN6google8protobuf8internal24SerializeMessageDispatchERKNS0_11MessageLiteEPKNS1_13FieldMetadataEiiPNS0_2io17CodedOutputStreamE
libsentencepiece.so.0:_ZN6google8protobuf8internal24SerializeMessageDispatchERKNS0_11MessageLiteEPKNS1_13FieldMetadataEiiPNS1_11ArrayOutputE
libsentencepiece.so.0:_ZN6google8protobuf8internal24UTF8GenericScanFastAsciiEPKNS1_19UTF8StateMachineObjEPKciPi
libsentencepiece.so.0:_ZN6google8protobuf8internal24UTF8SpnStructurallyValidENS0_11StringPieceE
libsentencepiece.so.0:_ZN6google8protobuf8internal25RepeatedPrimitiveDefaults16default_instanceEv
libsentencepiece.so.0:_ZN6google8protobuf8internal26DuplicateIfNonNullInternalEPNS0_11MessageLiteE
libsentencepiece.so.0:_ZN6google8protobuf8internal26UnknownFieldSerializerLiteEPKhjjjPNS0_2io17CodedOutputStreamE
libsentencepiece.so.0:_ZN6google8protobuf8internal29CodedOutputStreamFieldSkipper11SkipMessageEPNS0_2io16CodedInputStreamE
libsentencepiece.so.0:_ZN6google8protobuf8internal29CodedOutputStreamFieldSkipper15SkipUnknownEnumEii
libsentencepiece.so.0:_ZN6google8protobuf8internal29CodedOutputStreamFieldSkipper9SkipFieldEPNS0_2io16CodedInputStreamEj
libsentencepiece.so.0:_ZN6google8protobuf8internal29UTF8CoerceToStructurallyValidENS0_11StringPieceEPcc
libsentencepiece.so.0:_ZN6google8protobuf8internal31MergePartialFromCodedStreamLiteEPNS0_11MessageLiteERKNS1_10ParseTableEPNS0_2io16CodedInputStreamE
libsentencepiece.so.0:_ZN6google8protobuf8internal32StringSpaceUsedExcludingSelfLongERKNSt7__cxx1112basic_stringIcSt11char_traitsIcESaIcEEE
libsentencepiece.so.0:_ZN6google8protobuf8internal38InitImplicitWeakMessageDefaultInstanceEv
libsentencepiece.so.0:_ZN6google8protobuf8internal6IsNullILi10EEEbPKv
libsentencepiece.so.0:_ZN6google8protobuf8internal6IsNullILi11EEEbPKv
libsentencepiece.so.0:_ZN6google8protobuf8internal6IsNullILi12EEEbPKv
libsentencepiece.so.0:_ZN6google8protobuf8internal6IsNullILi9EEEbPKv
libsentencepiece.so.0:_ZN6google8protobuf8internal8byteswapILi1EEEvPv
libsentencepiece.so.0:_ZN6google8protobuf8internal8byteswapILi4EEEvPv
libsentencepiece.so.0:_ZN6google8protobuf8internal8byteswapILi8EEEvPv
libsentencepiece.so.0:_ZN6google8protobuf8internal9ArenaFreeEPvm
libsentencepiece.so.0:_ZN6google8protobuf8internal9ArenaImpl10AddCleanupEPvPFvS3_E
libsentencepiece.so.0:_ZN6google8protobuf8internal9ArenaImpl11CleanupListEv
libsentencepiece.so.0:_ZN6google8protobuf8internal9ArenaImpl15SetInitialBlockEPNS1_11SerialArena5BlockE
libsentencepiece.so.0:_ZN6google8protobuf8internal9ArenaImpl18AddCleanupFallbackEPvPFvS3_E
libsentencepiece.so.0:_ZN6google8protobuf8internal9ArenaImpl22GetSerialArenaFallbackEPv
libsentencepiece.so.0:_ZN6google8protobuf8internal9ArenaImpl23AllocateAlignedFallbackEm
libsentencepiece.so.0:_ZN6google8protobuf8internal9ArenaImpl28AllocateAlignedAndAddCleanupEmPFvPvE
libsentencepiece.so.0:_ZN6google8protobuf8internal9ArenaImpl36AllocateAlignedAndAddCleanupFallbackEmPFvPvE
libsentencepiece.so.0:_ZN6google8protobuf8internal9ArenaImpl4InitEb
libsentencepiece.so.0:_ZN6google8protobuf8internal9ArenaImpl5ResetEv
libsentencepiece.so.0:_ZN6google8protobuf8internal9ArenaImpl9NewBufferEmm
libsentencepiece.so.0:_ZN6google8protobuf8internal9ArenaImplC1ERKNS0_12ArenaOptionsE
libsentencepiece.so.0:_ZN6google8protobuf8internal9ArenaImplC2ERKNS0_12ArenaOptionsE
libsentencepiece.so.0:_ZN6google8protobuf8internal9ArenaImplD1Ev
libsentencepiece.so.0:_ZN6google8protobuf8internal9ArenaImplD2Ev
libsentencepiece.so.0:_ZN6google8protobuf8internal9ParseTimeERKNSt7__cxx1112basic_stringIcSt11char_traitsIcESaIcEEEPlPi
libsentencepiece.so.0:_ZN6google8protobuf9DoNothingEv
libsentencepiece.so.0:_ZN6google8protobuf9StrAppendEPNSt7__cxx1112basic_stringIcSt11char_traitsIcESaIcEEERKNS0_7strings8AlphaNumE
libsentencepiece.so.0:_ZN6google8protobuf9StrAppendEPNSt7__cxx1112basic_stringIcSt11char_traitsIcESaIcEEERKNS0_7strings8AlphaNumESB_
libsentencepiece.so.0:_ZN6google8protobuf9StrAppendEPNSt7__cxx1112basic_stringIcSt11char_traitsIcESaIcEEERKNS0_7strings8AlphaNumESB_SB_
libsentencepiece.so.0:_ZN6google8protobuf9StrAppendEPNSt7__cxx1112basic_stringIcSt11char_traitsIcESaIcEEERKNS0_7strings8AlphaNumESB_SB_SB_
libsentencepiece.so.0:_ZN6google8protobuflsERSoNS0_11StringPieceE
libsentencepiece.so.0:_ZN6google8protobuflsERSoRKNS0_7uint128E
libsentencepiece.so.0:_ZNK13sentencepiece10ModelProto11GetTypeNameB5cxx11Ev
libsentencepiece.so.0:_ZNK13sentencepiece10ModelProto12ByteSizeLongEv
libsentencepiece.so.0:_ZNK13sentencepiece10ModelProto13IsInitializedEv
libsentencepiece.so.0:_ZNK13sentencepiece10ModelProto13SetCachedSizeEi
libsentencepiece.so.0:_ZNK13sentencepiece10ModelProto18_InternalSerializeEPhPN6google8protobuf2io19EpsCopyOutputStreamE
libsentencepiece.so.0:_ZNK13sentencepiece10normalizer10Normalizer15NormalizePrefixESt17basic_string_viewIcSt11char_traitsIcEE
libsentencepiece.so.0:_ZNK13sentencepiece10normalizer10Normalizer9NormalizeB5cxx11ESt17basic_string_viewIcSt11char_traitsIcEE
libsentencepiece.so.0:_ZNK13sentencepiece10normalizer10Normalizer9NormalizeESt17basic_string_viewIcSt11char_traitsIcEEPNSt7__cxx1112basic_stringIcS4_SaIcEEEPSt6vectorImSaImEE
libsentencepiece.so.0:_ZNK13sentencepiece10normalizer13PrefixMatcher11PrefixMatchESt17basic_string_viewIcSt11char_traitsIcEEPb
libsentencepiece.so.0:_ZNK13sentencepiece10normalizer13PrefixMatcher13GlobalReplaceB5cxx11ESt17basic_string_viewIcSt11char_traitsIcEES5_
libsentencepiece.so.0:_ZNK13sentencepiece11TrainerSpec11GetTypeNameB5cxx11Ev
libsentencepiece.so.0:_ZNK13sentencepiece11TrainerSpec12ByteSizeLongEv
libsentencepiece.so.0:_ZNK13sentencepiece11TrainerSpec13IsInitializedEv
libsentencepiece.so.0:_ZNK13sentencepiece11TrainerSpec13SetCachedSizeEi
libsentencepiece.so.0:_ZNK13sentencepiece11TrainerSpec18_InternalSerializeEPhPN6google8protobuf2io19EpsCopyOutputStreamE
libsentencepiece.so.0:_ZNK13sentencepiece12SelfTestData11GetTypeNameB5cxx11Ev
libsentencepiece.so.0:_ZNK13sentencepiece12SelfTestData12ByteSizeLongEv
libsentencepiece.so.0:_ZNK13sentencepiece12SelfTestData13IsInitializedEv
libsentencepiece.so.0:_ZNK13sentencepiece12SelfTestData13SetCachedSizeEi
libsentencepiece.so.0:_ZNK13sentencepiece12SelfTestData18_InternalSerializeEPhPN6google8protobuf2io19EpsCopyOutputStreamE
libsentencepiece.so.0:_ZNK13sentencepiece14ModelInterface9PieceToIdESt17basic_string_viewIcSt11char_traitsIcEE
libsentencepiece.so.0:_ZNK13sentencepiece14ModelInterface9bos_pieceEv
libsentencepiece.so.0:_ZNK13sentencepiece14ModelInterface9eos_pieceEv
libsentencepiece.so.0:_ZNK13sentencepiece14ModelInterface9pad_pieceEv
libsentencepiece.so.0:_ZNK13sentencepiece14ModelInterface9unk_pieceEv
libsentencepiece.so.0:_ZNK13sentencepiece14NormalizerSpec11GetTypeNameB5cxx11Ev
libsentencepiece.so.0:_ZNK13sentencepiece14NormalizerSpec12ByteSizeLongEv
libsentencepiece.so.0:_ZNK13sentencepiece14NormalizerSpec13IsInitializedEv
libsentencepiece.so.0:_ZNK13sentencepiece14NormalizerSpec13SetCachedSizeEi
libsentencepiece.so.0:_ZNK13sentencepiece14NormalizerSpec18_InternalSerializeEPhPN6google8protobuf2io19EpsCopyOutputStreamE
libsentencepiece.so.0:_ZNK13sentencepiece17SentencePieceText11GetTypeNameB5cxx11Ev
libsentencepiece.so.0:_ZNK13sentencepiece17SentencePieceText12ByteSizeLongEv
libsentencepiece.so.0:_ZNK13sentencepiece17SentencePieceText13IsInitializedEv
libsentencepiece.so.0:_ZNK13sentencepiece17SentencePieceText13SetCachedSizeEi
libsentencepiece.so.0:_ZNK13sentencepiece17SentencePieceText18_InternalSerializeEPhPN6google8protobuf2io19EpsCopyOutputStreamE
libsentencepiece.so.0:_ZNK13sentencepiece19SelfTestData_Sample11GetTypeNameB5cxx11Ev
libsentencepiece.so.0:_ZNK13sentencepiece19SelfTestData_Sample12ByteSizeLongEv
libsentencepiece.so.0:_ZNK13sentencepiece19SelfTestData_Sample13IsInitializedEv
libsentencepiece.so.0:_ZNK13sentencepiece19SelfTestData_Sample13SetCachedSizeEi
libsentencepiece.so.0:_ZNK13sentencepiece19SelfTestData_Sample18_InternalSerializeEPhPN6google8protobuf2io19EpsCopyOutputStreamE
libsentencepiece.so.0:_ZNK13sentencepiece22NBestSentencePieceText11GetTypeNameB5cxx11Ev
libsentencepiece.so.0:_ZNK13sentencepiece22NBestSentencePieceText12ByteSizeLongEv
libsentencepiece.so.0:_ZNK13sentencepiece22NBestSentencePieceText13IsInitializedEv
libsentencepiece.so.0:_ZNK13sentencepiece22NBestSentencePieceText13SetCachedSizeEi
libsentencepiece.so.0:_ZNK13sentencepiece22NBestSentencePieceText18_InternalSerializeEPhPN6google8protobuf2io19EpsCopyOutputStreamE
libsentencepiece.so.0:_ZNK13sentencepiece22SentencePieceProcessor11NBestEncodeESt17basic_string_viewIcSt11char_traitsIcEEiPNS_22NBestSentencePieceTextE
libsentencepiece.so.0:_ZNK13sentencepiece22SentencePieceProcessor11NBestEncodeESt17basic_string_viewIcSt11char_traitsIcEEiPSt6vectorIS5_INSt7__cxx1112basic_stringIcS3_SaIcEEESaIS9_EESaISB_EE
libsentencepiece.so.0:_ZNK13sentencepiece22SentencePieceProcessor11NBestEncodeESt17basic_string_viewIcSt11char_traitsIcEEiPSt6vectorIS5_IiSaIiEESaIS7_EE
libsentencepiece.so.0:_ZNK13sentencepiece22SentencePieceProcessor11model_protoEv
libsentencepiece.so.0:_ZNK13sentencepiece22SentencePieceProcessor12GetPieceSizeEv
libsentencepiece.so.0:_ZNK13sentencepiece22SentencePieceProcessor12SampleEncodeESt17basic_string_viewIcSt11char_traitsIcEEifPNS_17SentencePieceTextE
libsentencepiece.so.0:_ZNK13sentencepiece22SentencePieceProcessor12SampleEncodeESt17basic_string_viewIcSt11char_traitsIcEEifPSt6vectorINSt7__cxx1112basic_stringIcS3_SaIcEEESaIS9_EE
libsentencepiece.so.0:_ZNK13sentencepiece22SentencePieceProcessor12SampleEncodeESt17basic_string_viewIcSt11char_traitsIcEEifPSt6vectorIiSaIiEE
libsentencepiece.so.0:_ZNK13sentencepiece22SentencePieceProcessor16CalculateEntropyESt17basic_string_viewIcSt11char_traitsIcEEfPf
libsentencepiece.so.0:_ZNK13sentencepiece22SentencePieceProcessor17ApplyExtraOptionsERKSt6vectorINS0_11ExtraOptionESaIS2_EEPNS_17SentencePieceTextE
libsentencepiece.so.0:_ZNK13sentencepiece22SentencePieceProcessor17ParseExtraOptionsESt17basic_string_viewIcSt11char_traitsIcEEPSt6vectorINS0_11ExtraOptionESaIS6_EE
libsentencepiece.so.0:_ZNK13sentencepiece22SentencePieceProcessor20SampleEncodeAndScoreESt17basic_string_viewIcSt11char_traitsIcEEifbbPNS_22NBestSentencePieceTextE
libsentencepiece.so.0:_ZNK13sentencepiece22SentencePieceProcessor20SampleEncodeAndScoreESt17basic_string_viewIcSt11char_traitsIcEEifbbPSt6vectorISt4pairIS5_INSt7__cxx1112basic_stringIcS3_SaIcEEESaISA_EEfESaISD_EE
libsentencepiece.so.0:_ZNK13sentencepiece22SentencePieceProcessor20SampleEncodeAndScoreESt17basic_string_viewIcSt11char_traitsIcEEifbbPSt6vectorISt4pairIS5_IiSaIiEEfESaIS9_EE
libsentencepiece.so.0:_ZNK13sentencepiece22SentencePieceProcessor22serialized_model_protoB5cxx11Ev
libsentencepiece.so.0:_ZNK13sentencepiece22SentencePieceProcessor25PopulateSentencePieceTextESt17basic_string_viewIcSt11char_traitsIcEES4_RKSt6vectorImSaImEERKS5_ISt4pairIS4_iESaISB_EEPNS_17SentencePieceTextE
libsentencepiece.so.0:_ZNK13sentencepiece22SentencePieceProcessor6DecodeERKSt6vectorINSt7__cxx1112basic_stringIcSt11char_traitsIcESaIcEEESaIS7_EEPNS_17SentencePieceTextE
libsentencepiece.so.0:_ZNK13sentencepiece22SentencePieceProcessor6DecodeERKSt6vectorINSt7__cxx1112basic_stringIcSt11char_traitsIcESaIcEEESaIS7_EEPS7_
libsentencepiece.so.0:_ZNK13sentencepiece22SentencePieceProcessor6DecodeERKSt6vectorISt17basic_string_viewIcSt11char_traitsIcEESaIS5_EEPNS_17SentencePieceTextE
libsentencepiece.so.0:_ZNK13sentencepiece22SentencePieceProcessor6DecodeERKSt6vectorISt17basic_string_viewIcSt11char_traitsIcEESaIS5_EEPNSt7__cxx1112basic_stringIcS4_SaIcEEE
libsentencepiece.so.0:_ZNK13sentencepiece22SentencePieceProcessor6DecodeERKSt6vectorIiSaIiEEPNS_17SentencePieceTextE
libsentencepiece.so.0:_ZNK13sentencepiece22SentencePieceProcessor6DecodeERKSt6vectorIiSaIiEEPNSt7__cxx1112basic_stringIcSt11char_traitsIcESaIcEEE
libsentencepiece.so.0:_ZNK13sentencepiece22SentencePieceProcessor6EncodeESt17basic_string_viewIcSt11char_traitsIcEEPNS_17SentencePieceTextE
libsentencepiece.so.0:_ZNK13sentencepiece22SentencePieceProcessor6EncodeESt17basic_string_viewIcSt11char_traitsIcEEPSt6vectorINSt7__cxx1112basic_stringIcS3_SaIcEEESaIS9_EE
libsentencepiece.so.0:_ZNK13sentencepiece22SentencePieceProcessor6EncodeESt17basic_string_viewIcSt11char_traitsIcEEPSt6vectorIiSaIiEE
libsentencepiece.so.0:_ZNK13sentencepiece22SentencePieceProcessor6IsByteEi
libsentencepiece.so.0:_ZNK13sentencepiece22SentencePieceProcessor6bos_idEv
libsentencepiece.so.0:_ZNK13sentencepiece22SentencePieceProcessor6eos_idEv
libsentencepiece.so.0:_ZNK13sentencepiece22SentencePieceProcessor6pad_idEv
libsentencepiece.so.0:_ZNK13sentencepiece22SentencePieceProcessor6statusEv
libsentencepiece.so.0:_ZNK13sentencepiece22SentencePieceProcessor6unk_idEv
libsentencepiece.so.0:_ZNK13sentencepiece22SentencePieceProcessor8GetScoreEi
libsentencepiece.so.0:_ZNK13sentencepiece22SentencePieceProcessor8IsUnusedEi
libsentencepiece.so.0:_ZNK13sentencepiece22SentencePieceProcessor9IdToPieceB5cxx11Ei
libsentencepiece.so.0:_ZNK13sentencepiece22SentencePieceProcessor9IsControlEi
libsentencepiece.so.0:_ZNK13sentencepiece22SentencePieceProcessor9IsUnknownEi
libsentencepiece.so.0:_ZNK13sentencepiece22SentencePieceProcessor9PieceToIdESt17basic_string_viewIcSt11char_traitsIcEE
libsentencepiece.so.0:_ZNK13sentencepiece24ModelProto_SentencePiece11GetTypeNameB5cxx11Ev
libsentencepiece.so.0:_ZNK13sentencepiece24ModelProto_SentencePiece12ByteSizeLongEv
libsentencepiece.so.0:_ZNK13sentencepiece24ModelProto_SentencePiece13IsInitializedEv
libsentencepiece.so.0:_ZNK13sentencepiece24ModelProto_SentencePiece13SetCachedSizeEi
libsentencepiece.so.0:_ZNK13sentencepiece24ModelProto_SentencePiece18_InternalSerializeEPhPN6google8protobuf2io19EpsCopyOutputStreamE
libsentencepiece.so.0:_ZNK13sentencepiece26ImmutableSentencePieceText11pieces_sizeEv
libsentencepiece.so.0:_ZNK13sentencepiece26ImmutableSentencePieceText17SerializeAsStringB5cxx11Ev
libsentencepiece.so.0:_ZNK13sentencepiece26ImmutableSentencePieceText4textB5cxx11Ev
libsentencepiece.so.0:_ZNK13sentencepiece26ImmutableSentencePieceText5scoreEv
libsentencepiece.so.0:_ZNK13sentencepiece26ImmutableSentencePieceText6piecesEi
libsentencepiece.so.0:_ZNK13sentencepiece26ImmutableSentencePieceText6piecesEv
libsentencepiece.so.0:_ZNK13sentencepiece31ImmutableNBestSentencePieceText11nbests_sizeEv
libsentencepiece.so.0:_ZNK13sentencepiece31ImmutableNBestSentencePieceText17SerializeAsStringB5cxx11Ev
libsentencepiece.so.0:_ZNK13sentencepiece31ImmutableNBestSentencePieceText6nbestsEi
libsentencepiece.so.0:_ZNK13sentencepiece31ImmutableNBestSentencePieceText6nbestsEv
libsentencepiece.so.0:_ZNK13sentencepiece31SentencePieceText_SentencePiece11GetTypeNameB5cxx11Ev
libsentencepiece.so.0:_ZNK13sentencepiece31SentencePieceText_SentencePiece12ByteSizeLongEv
libsentencepiece.so.0:_ZNK13sentencepiece31SentencePieceText_SentencePiece13IsInitializedEv
libsentencepiece.so.0:_ZNK13sentencepiece31SentencePieceText_SentencePiece13SetCachedSizeEi
libsentencepiece.so.0:_ZNK13sentencepiece31SentencePieceText_SentencePiece18_InternalSerializeEPhPN6google8protobuf2io19EpsCopyOutputStreamE
libsentencepiece.so.0:_ZNK13sentencepiece3bpe5Model12SampleEncodeESt17basic_string_viewIcSt11char_traitsIcEEf
libsentencepiece.so.0:_ZNK13sentencepiece49ImmutableSentencePieceText_ImmutableSentencePiece2idEv
libsentencepiece.so.0:_ZNK13sentencepiece49ImmutableSentencePieceText_ImmutableSentencePiece3endEv
libsentencepiece.so.0:_ZNK13sentencepiece49ImmutableSentencePieceText_ImmutableSentencePiece5beginEv
libsentencepiece.so.0:_ZNK13sentencepiece49ImmutableSentencePieceText_ImmutableSentencePiece5pieceB5cxx11Ev
libsentencepiece.so.0:_ZNK13sentencepiece49ImmutableSentencePieceText_ImmutableSentencePiece7surfaceB5cxx11Ev
libsentencepiece.so.0:_ZNK13sentencepiece4util6Status13error_messageEv
libsentencepiece.so.0:_ZNK13sentencepiece4util6Status4codeEv
libsentencepiece.so.0:_ZNK13sentencepiece4util6Status8ToStringB5cxx11Ev
libsentencepiece.so.0:_ZNK13sentencepiece4util6StatuseqERKS1_
libsentencepiece.so.0:_ZNK13sentencepiece4util6StatusneERKS1_
libsentencepiece.so.0:_ZNK13sentencepiece4word5Model6EncodeESt17basic_string_viewIcSt11char_traitsIcEE
libsentencepiece.so.0:_ZNK13sentencepiece7unigram5Model11NBestEncodeESt17basic_string_viewIcSt11char_traitsIcEEi
libsentencepiece.so.0:_ZNK13sentencepiece7unigram5Model12SampleEncodeESt17basic_string_viewIcSt11char_traitsIcEEf
libsentencepiece.so.0:_ZNK13sentencepiece7unigram5Model13PopulateNodesEPNS0_7LatticeE
libsentencepiece.so.0:_ZNK13sentencepiece7unigram5Model15EncodeOptimizedESt17basic_string_viewIcSt11char_traitsIcEE
libsentencepiece.so.0:_ZNK13sentencepiece7unigram5Model16CalculateEntropyESt17basic_string_viewIcSt11char_traitsIcEEf
libsentencepiece.so.0:_ZNK13sentencepiece7unigram5Model20SampleEncodeAndScoreESt17basic_string_viewIcSt11char_traitsIcEEfibb
libsentencepiece.so.0:_ZNK13sentencepiece7unigram5Model23VerifyOutputsEquivalentESt17basic_string_viewIcSt11char_traitsIcEES5_
libsentencepiece.so.0:_ZNK13sentencepiece7unigram5Model6EncodeESt17basic_string_viewIcSt11char_traitsIcEE
libsentencepiece.so.0:_ZNK13sentencepiece7unigram5Model9PieceToIdESt17basic_string_viewIcSt11char_traitsIcEE
libsentencepiece.so.0:_ZNK13sentencepiece7unigram7Lattice11begin_nodesEi
libsentencepiece.so.0:_ZNK13sentencepiece7unigram7Lattice16CalculateEntropyEf
libsentencepiece.so.0:_ZNK13sentencepiece7unigram7Lattice16ForwardAlgorithmEf
libsentencepiece.so.0:_ZNK13sentencepiece7unigram7Lattice16PopulateMarginalEfPSt6vectorIfSaIfEE
libsentencepiece.so.0:_ZNK13sentencepiece7unigram7Lattice17BackwardAlgorithmEf
libsentencepiece.so.0:_ZNK13sentencepiece7unigram7Lattice4sizeEv
libsentencepiece.so.0:_ZNK13sentencepiece7unigram7Lattice7surfaceEi
libsentencepiece.so.0:_ZNK13sentencepiece7unigram7Lattice8bos_nodeEv
libsentencepiece.so.0:_ZNK13sentencepiece7unigram7Lattice8eos_nodeEv
libsentencepiece.so.0:_ZNK13sentencepiece7unigram7Lattice8sentenceEv
libsentencepiece.so.0:_ZNK13sentencepiece7unigram7Lattice9end_nodesEi
libsentencepiece.so.0:_ZNK13sentencepiece7unigram7Lattice9utf8_sizeEv
libsentencepiece.so.0:_ZNK13sentencepiece9character5Model6EncodeESt17basic_string_viewIcSt11char_traitsIcEE
libsentencepiece.so.0:_ZNK4absl4FlagINSt7__cxx1112basic_stringIcSt11char_traitsIcESaIcEEEE5valueEv
libsentencepiece.so.0:_ZNK4absl4FlagIbE5valueEv
libsentencepiece.so.0:_ZNK4absl4FlagIdE5valueEv
libsentencepiece.so.0:_ZNK4absl4FlagIfE5valueEv
libsentencepiece.so.0:_ZNK4absl4FlagIiE5valueEv
libsentencepiece.so.0:_ZNK4absl4FlagIjE5valueEv
libsentencepiece.so.0:_ZNK4absl4FlagIlE5valueEv
libsentencepiece.so.0:_ZNK4absl4FlagImE5valueEv
libsentencepiece.so.0:_ZNK6google8protobuf11MessageLite11DebugStringB5cxx11Ev
libsentencepiece.so.0:_ZNK6google8protobuf11MessageLite14AppendToStringEPNSt7__cxx1112basic_stringIcSt11char_traitsIcESaIcEEE
libsentencepiece.so.0:_ZNK6google8protobuf11MessageLite16SerializeToArrayEPvi
libsentencepiece.so.0:_ZNK6google8protobuf11MessageLite17SerializeAsStringB5cxx11Ev
libsentencepiece.so.0:_ZNK6google8protobuf11MessageLite17SerializeToStringEPNSt7__cxx1112basic_stringIcSt11char_traitsIcESaIcEEE
libsentencepiece.so.0:_ZNK6google8protobuf11MessageLite18SerializeToOstreamEPSo
libsentencepiece.so.0:_ZNK6google8protobuf11MessageLite21AppendPartialToStringEPNSt7__cxx1112basic_stringIcSt11char_traitsIcESaIcEEE
libsentencepiece.so.0:_ZNK6google8protobuf11MessageLite22SerializeToCodedStreamEPNS0_2io17CodedOutputStreamE
libsentencepiece.so.0:_ZNK6google8protobuf11MessageLite23SerializePartialToArrayEPvi
libsentencepiece.so.0:_ZNK6google8protobuf11MessageLite24SerializePartialAsStringB5cxx11Ev
libsentencepiece.so.0:_ZNK6google8protobuf11MessageLite24SerializePartialToStringEPNSt7__cxx1112basic_stringIcSt11char_traitsIcESaIcEEE
libsentencepiece.so.0:_ZNK6google8protobuf11MessageLite25InitializationErrorStringB5cxx11Ev
libsentencepiece.so.0:_ZNK6google8protobuf11MessageLite25SerializePartialToOstreamEPSo
libsentencepiece.so.0:_ZNK6google8protobuf11MessageLite25SerializeToFileDescriptorEi
libsentencepiece.so.0:_ZNK6google8protobuf11MessageLite25SerializeToZeroCopyStreamEPNS0_2io20ZeroCopyOutputStreamE
libsentencepiece.so.0:_ZNK6google8protobuf11MessageLite29LogInitializationErrorMessageEv
libsentencepiece.so.0:_ZNK6google8protobuf11MessageLite29SerializePartialToCodedStreamEPNS0_2io17CodedOutputStreamE
libsentencepiece.so.0:_ZNK6google8protobuf11MessageLite31SerializeWithCachedSizesToArrayEPh
libsentencepiece.so.0:_ZNK6google8protobuf11MessageLite32SerializePartialToFileDescriptorEi
libsentencepiece.so.0:_ZNK6google8protobuf11MessageLite32SerializePartialToZeroCopyStreamEPNS0_2io20ZeroCopyOutputStreamE
libsentencepiece.so.0:_ZNK6google8protobuf11MessageLite3NewEPNS0_5ArenaE
libsentencepiece.so.0:_ZNK6google8protobuf11StringPiece12CopyToStringEPNSt7__cxx1112basic_stringIcSt11char_traitsIcESaIcEEE
libsentencepiece.so.0:_ZNK6google8protobuf11StringPiece12find_last_ofES1_m
libsentencepiece.so.0:_ZNK6google8protobuf11StringPiece13find_first_ofES1_m
libsentencepiece.so.0:_ZNK6google8protobuf11StringPiece14AppendToStringEPNSt7__cxx1112basic_stringIcSt11char_traitsIcESaIcEEE
libsentencepiece.so.0:_ZNK6google8protobuf11StringPiece16find_last_not_ofES1_m
libsentencepiece.so.0:_ZNK6google8protobuf11StringPiece16find_last_not_ofEcm
libsentencepiece.so.0:_ZNK6google8protobuf11StringPiece17find_first_not_ofES1_m
libsentencepiece.so.0:_ZNK6google8protobuf11StringPiece17find_first_not_ofEcm
libsentencepiece.so.0:_ZNK6google8protobuf11StringPiece4copyEPcmm
libsentencepiece.so.0:_ZNK6google8protobuf11StringPiece4findES1_m
libsentencepiece.so.0:_ZNK6google8protobuf11StringPiece4findEcm
libsentencepiece.so.0:_ZNK6google8protobuf11StringPiece5rfindES1_m
libsentencepiece.so.0:_ZNK6google8protobuf11StringPiece5rfindEcm
libsentencepiece.so.0:_ZNK6google8protobuf11StringPiece6substrEmm
libsentencepiece.so.0:_ZNK6google8protobuf11StringPiece8containsES1_
libsentencepiece.so.0:_ZNK6google8protobuf13RepeatedFieldIbE15unsafe_elementsEv
libsentencepiece.so.0:_ZNK6google8protobuf13RepeatedFieldIbE22SpaceUsedExcludingSelfEv
libsentencepiece.so.0:_ZNK6google8protobuf13RepeatedFieldIbE26SpaceUsedExcludingSelfLongEv
libsentencepiece.so.0:_ZNK6google8protobuf13RepeatedFieldIbE2atEi
libsentencepiece.so.0:_ZNK6google8protobuf13RepeatedFieldIbE3GetEi
libsentencepiece.so.0:_ZNK6google8protobuf13RepeatedFieldIbE3endEv
libsentencepiece.so.0:_ZNK6google8protobuf13RepeatedFieldIbE3repEv
libsentencepiece.so.0:_ZNK6google8protobuf13RepeatedFieldIbE4cendEv
libsentencepiece.so.0:_ZNK6google8protobuf13RepeatedFieldIbE4dataEv
libsentencepiece.so.0:_ZNK6google8protobuf13RepeatedFieldIbE4rendEv
libsentencepiece.so.0:_ZNK6google8protobuf13RepeatedFieldIbE4sizeEv
libsentencepiece.so.0:_ZNK6google8protobuf13RepeatedFieldIbE5beginEv
libsentencepiece.so.0:_ZNK6google8protobuf13RepeatedFieldIbE5emptyEv
libsentencepiece.so.0:_ZNK6google8protobuf13RepeatedFieldIbE6cbeginEv
libsentencepiece.so.0:_ZNK6google8protobuf13RepeatedFieldIbE6rbeginEv
libsentencepiece.so.0:_ZNK6google8protobuf13RepeatedFieldIbE8CapacityEv
libsentencepiece.so.0:_ZNK6google8protobuf13RepeatedFieldIbE8GetArenaEv
libsentencepiece.so.0:_ZNK6google8protobuf13RepeatedFieldIbE8elementsEv
libsentencepiece.so.0:_ZNK6google8protobuf13RepeatedFieldIbEixEi
libsentencepiece.so.0:_ZNK6google8protobuf13RepeatedFieldIdE15unsafe_elementsEv
libsentencepiece.so.0:_ZNK6google8protobuf13RepeatedFieldIdE22SpaceUsedExcludingSelfEv
libsentencepiece.so.0:_ZNK6google8protobuf13RepeatedFieldIdE26SpaceUsedExcludingSelfLongEv
libsentencepiece.so.0:_ZNK6google8protobuf13RepeatedFieldIdE2atEi
libsentencepiece.so.0:_ZNK6google8protobuf13RepeatedFieldIdE3GetEi
libsentencepiece.so.0:_ZNK6google8protobuf13RepeatedFieldIdE3endEv
libsentencepiece.so.0:_ZNK6google8protobuf13RepeatedFieldIdE3repEv
libsentencepiece.so.0:_ZNK6google8protobuf13RepeatedFieldIdE4cendEv
libsentencepiece.so.0:_ZNK6google8protobuf13RepeatedFieldIdE4dataEv
libsentencepiece.so.0:_ZNK6google8protobuf13RepeatedFieldIdE4rendEv
libsentencepiece.so.0:_ZNK6google8protobuf13RepeatedFieldIdE4sizeEv
libsentencepiece.so.0:_ZNK6google8protobuf13RepeatedFieldIdE5beginEv
libsentencepiece.so.0:_ZNK6google8protobuf13RepeatedFieldIdE5emptyEv
libsentencepiece.so.0:_ZNK6google8protobuf13RepeatedFieldIdE6cbeginEv
libsentencepiece.so.0:_ZNK6google8protobuf13RepeatedFieldIdE6rbeginEv
libsentencepiece.so.0:_ZNK6google8protobuf13RepeatedFieldIdE8CapacityEv
libsentencepiece.so.0:_ZNK6google8protobuf13RepeatedFieldIdE8GetArenaEv
libsentencepiece.so.0:_ZNK6google8protobuf13RepeatedFieldIdE8elementsEv
libsentencepiece.so.0:_ZNK6google8protobuf13RepeatedFieldIdEixEi
libsentencepiece.so.0:_ZNK6google8protobuf13RepeatedFieldIfE15unsafe_elementsEv
libsentencepiece.so.0:_ZNK6google8protobuf13RepeatedFieldIfE22SpaceUsedExcludingSelfEv
libsentencepiece.so.0:_ZNK6google8protobuf13RepeatedFieldIfE26SpaceUsedExcludingSelfLongEv
libsentencepiece.so.0:_ZNK6google8protobuf13RepeatedFieldIfE2atEi
libsentencepiece.so.0:_ZNK6google8protobuf13RepeatedFieldIfE3GetEi
libsentencepiece.so.0:_ZNK6google8protobuf13RepeatedFieldIfE3endEv
libsentencepiece.so.0:_ZNK6google8protobuf13RepeatedFieldIfE3repEv
libsentencepiece.so.0:_ZNK6google8protobuf13RepeatedFieldIfE4cendEv
libsentencepiece.so.0:_ZNK6google8protobuf13RepeatedFieldIfE4dataEv
libsentencepiece.so.0:_ZNK6google8protobuf13RepeatedFieldIfE4rendEv
libsentencepiece.so.0:_ZNK6google8protobuf13RepeatedFieldIfE4sizeEv
libsentencepiece.so.0:_ZNK6google8protobuf13RepeatedFieldIfE5beginEv
libsentencepiece.so.0:_ZNK6google8protobuf13RepeatedFieldIfE5emptyEv
libsentencepiece.so.0:_ZNK6google8protobuf13RepeatedFieldIfE6cbeginEv
libsentencepiece.so.0:_ZNK6google8protobuf13RepeatedFieldIfE6rbeginEv
libsentencepiece.so.0:_ZNK6google8protobuf13RepeatedFieldIfE8CapacityEv
libsentencepiece.so.0:_ZNK6google8protobuf13RepeatedFieldIfE8GetArenaEv
libsentencepiece.so.0:_ZNK6google8protobuf13RepeatedFieldIfE8elementsEv
libsentencepiece.so.0:_ZNK6google8protobuf13RepeatedFieldIfEixEi
libsentencepiece.so.0:_ZNK6google8protobuf13RepeatedFieldIiE15unsafe_elementsEv
libsentencepiece.so.0:_ZNK6google8protobuf13RepeatedFieldIiE22SpaceUsedExcludingSelfEv
libsentencepiece.so.0:_ZNK6google8protobuf13RepeatedFieldIiE26SpaceUsedExcludingSelfLongEv
libsentencepiece.so.0:_ZNK6google8protobuf13RepeatedFieldIiE2atEi
libsentencepiece.so.0:_ZNK6google8protobuf13RepeatedFieldIiE3GetEi
libsentencepiece.so.0:_ZNK6google8protobuf13RepeatedFieldIiE3endEv
libsentencepiece.so.0:_ZNK6google8protobuf13RepeatedFieldIiE3repEv
libsentencepiece.so.0:_ZNK6google8protobuf13RepeatedFieldIiE4cendEv
libsentencepiece.so.0:_ZNK6google8protobuf13RepeatedFieldIiE4dataEv
libsentencepiece.so.0:_ZNK6google8protobuf13RepeatedFieldIiE4rendEv
libsentencepiece.so.0:_ZNK6google8protobuf13RepeatedFieldIiE4sizeEv
libsentencepiece.so.0:_ZNK6google8protobuf13RepeatedFieldIiE5beginEv
libsentencepiece.so.0:_ZNK6google8protobuf13RepeatedFieldIiE5emptyEv
libsentencepiece.so.0:_ZNK6google8protobuf13RepeatedFieldIiE6cbeginEv
libsentencepiece.so.0:_ZNK6google8protobuf13RepeatedFieldIiE6rbeginEv
libsentencepiece.so.0:_ZNK6google8protobuf13RepeatedFieldIiE8CapacityEv
libsentencepiece.so.0:_ZNK6google8protobuf13RepeatedFieldIiE8GetArenaEv
libsentencepiece.so.0:_ZNK6google8protobuf13RepeatedFieldIiE8elementsEv
libsentencepiece.so.0:_ZNK6google8protobuf13RepeatedFieldIiEixEi
libsentencepiece.so.0:_ZNK6google8protobuf13RepeatedFieldIjE15unsafe_elementsEv
libsentencepiece.so.0:_ZNK6google8protobuf13RepeatedFieldIjE22SpaceUsedExcludingSelfEv
libsentencepiece.so.0:_ZNK6google8protobuf13RepeatedFieldIjE26SpaceUsedExcludingSelfLongEv
libsentencepiece.so.0:_ZNK6google8protobuf13RepeatedFieldIjE2atEi
libsentencepiece.so.0:_ZNK6google8protobuf13RepeatedFieldIjE3GetEi
libsentencepiece.so.0:_ZNK6google8protobuf13RepeatedFieldIjE3endEv
libsentencepiece.so.0:_ZNK6google8protobuf13RepeatedFieldIjE3repEv
libsentencepiece.so.0:_ZNK6google8protobuf13RepeatedFieldIjE4cendEv
libsentencepiece.so.0:_ZNK6google8protobuf13RepeatedFieldIjE4dataEv
libsentencepiece.so.0:_ZNK6google8protobuf13RepeatedFieldIjE4rendEv
libsentencepiece.so.0:_ZNK6google8protobuf13RepeatedFieldIjE4sizeEv
libsentencepiece.so.0:_ZNK6google8protobuf13RepeatedFieldIjE5beginEv
libsentencepiece.so.0:_ZNK6google8protobuf13RepeatedFieldIjE5emptyEv
libsentencepiece.so.0:_ZNK6google8protobuf13RepeatedFieldIjE6cbeginEv
libsentencepiece.so.0:_ZNK6google8protobuf13RepeatedFieldIjE6rbeginEv
libsentencepiece.so.0:_ZNK6google8protobuf13RepeatedFieldIjE8CapacityEv
libsentencepiece.so.0:_ZNK6google8protobuf13RepeatedFieldIjE8GetArenaEv
libsentencepiece.so.0:_ZNK6google8protobuf13RepeatedFieldIjE8elementsEv
libsentencepiece.so.0:_ZNK6google8protobuf13RepeatedFieldIjEixEi
libsentencepiece.so.0:_ZNK6google8protobuf13RepeatedFieldIlE15unsafe_elementsEv
libsentencepiece.so.0:_ZNK6google8protobuf13RepeatedFieldIlE22SpaceUsedExcludingSelfEv
libsentencepiece.so.0:_ZNK6google8protobuf13RepeatedFieldIlE26SpaceUsedExcludingSelfLongEv
libsentencepiece.so.0:_ZNK6google8protobuf13RepeatedFieldIlE2atEi
libsentencepiece.so.0:_ZNK6google8protobuf13RepeatedFieldIlE3GetEi
libsentencepiece.so.0:_ZNK6google8protobuf13RepeatedFieldIlE3endEv
libsentencepiece.so.0:_ZNK6google8protobuf13RepeatedFieldIlE3repEv
libsentencepiece.so.0:_ZNK6google8protobuf13RepeatedFieldIlE4cendEv
libsentencepiece.so.0:_ZNK6google8protobuf13RepeatedFieldIlE4dataEv
libsentencepiece.so.0:_ZNK6google8protobuf13RepeatedFieldIlE4rendEv
libsentencepiece.so.0:_ZNK6google8protobuf13RepeatedFieldIlE4sizeEv
libsentencepiece.so.0:_ZNK6google8protobuf13RepeatedFieldIlE5beginEv
libsentencepiece.so.0:_ZNK6google8protobuf13RepeatedFieldIlE5emptyEv
libsentencepiece.so.0:_ZNK6google8protobuf13RepeatedFieldIlE6cbeginEv
libsentencepiece.so.0:_ZNK6google8protobuf13RepeatedFieldIlE6rbeginEv
libsentencepiece.so.0:_ZNK6google8protobuf13RepeatedFieldIlE8CapacityEv
libsentencepiece.so.0:_ZNK6google8protobuf13RepeatedFieldIlE8GetArenaEv
libsentencepiece.so.0:_ZNK6google8protobuf13RepeatedFieldIlE8elementsEv
libsentencepiece.so.0:_ZNK6google8protobuf13RepeatedFieldIlEixEi
libsentencepiece.so.0:_ZNK6google8protobuf13RepeatedFieldImE15unsafe_elementsEv
libsentencepiece.so.0:_ZNK6google8protobuf13RepeatedFieldImE22SpaceUsedExcludingSelfEv
libsentencepiece.so.0:_ZNK6google8protobuf13RepeatedFieldImE26SpaceUsedExcludingSelfLongEv
libsentencepiece.so.0:_ZNK6google8protobuf13RepeatedFieldImE2atEi
libsentencepiece.so.0:_ZNK6google8protobuf13RepeatedFieldImE3GetEi
libsentencepiece.so.0:_ZNK6google8protobuf13RepeatedFieldImE3endEv
libsentencepiece.so.0:_ZNK6google8protobuf13RepeatedFieldImE3repEv
libsentencepiece.so.0:_ZNK6google8protobuf13RepeatedFieldImE4cendEv
libsentencepiece.so.0:_ZNK6google8protobuf13RepeatedFieldImE4dataEv
libsentencepiece.so.0:_ZNK6google8protobuf13RepeatedFieldImE4rendEv
libsentencepiece.so.0:_ZNK6google8protobuf13RepeatedFieldImE4sizeEv
libsentencepiece.so.0:_ZNK6google8protobuf13RepeatedFieldImE5beginEv
libsentencepiece.so.0:_ZNK6google8protobuf13RepeatedFieldImE5emptyEv
libsentencepiece.so.0:_ZNK6google8protobuf13RepeatedFieldImE6cbeginEv
libsentencepiece.so.0:_ZNK6google8protobuf13RepeatedFieldImE6rbeginEv
libsentencepiece.so.0:_ZNK6google8protobuf13RepeatedFieldImE8CapacityEv
libsentencepiece.so.0:_ZNK6google8protobuf13RepeatedFieldImE8GetArenaEv
libsentencepiece.so.0:_ZNK6google8protobuf13RepeatedFieldImE8elementsEv
libsentencepiece.so.0:_ZNK6google8protobuf13RepeatedFieldImEixEi
libsentencepiece.so.0:_ZNK6google8protobuf14FatalException4whatEv
libsentencepiece.so.0:_ZNK6google8protobuf16RepeatedPtrFieldINSt7__cxx1112basic_stringIcSt11char_traitsIcESaIcEEEE11pointer_endEv
libsentencepiece.so.0:_ZNK6google8protobuf16RepeatedPtrFieldINSt7__cxx1112basic_stringIcSt11char_traitsIcESaIcEEEE12ClearedCountEv
libsentencepiece.so.0:_ZNK6google8protobuf16RepeatedPtrFieldINSt7__cxx1112basic_stringIcSt11char_traitsIcESaIcEEEE13pointer_beginEv
libsentencepiece.so.0:_ZNK6google8protobuf16RepeatedPtrFieldINSt7__cxx1112basic_stringIcSt11char_traitsIcESaIcEEEE22SpaceUsedExcludingSelfEv
libsentencepiece.so.0:_ZNK6google8protobuf16RepeatedPtrFieldINSt7__cxx1112basic_stringIcSt11char_traitsIcESaIcEEEE26SpaceUsedExcludingSelfLongEv
libsentencepiece.so.0:_ZNK6google8protobuf16RepeatedPtrFieldINSt7__cxx1112basic_stringIcSt11char_traitsIcESaIcEEEE2atEi
libsentencepiece.so.0:_ZNK6google8protobuf16RepeatedPtrFieldINSt7__cxx1112basic_stringIcSt11char_traitsIcESaIcEEEE3GetEi
libsentencepiece.so.0:_ZNK6google8protobuf16RepeatedPtrFieldINSt7__cxx1112basic_stringIcSt11char_traitsIcESaIcEEEE3endEv
libsentencepiece.so.0:_ZNK6google8protobuf16RepeatedPtrFieldINSt7__cxx1112basic_stringIcSt11char_traitsIcESaIcEEEE4cendEv
libsentencepiece.so.0:_ZNK6google8protobuf16RepeatedPtrFieldINSt7__cxx1112basic_stringIcSt11char_traitsIcESaIcEEEE4dataEv
libsentencepiece.so.0:_ZNK6google8protobuf16RepeatedPtrFieldINSt7__cxx1112basic_stringIcSt11char_traitsIcESaIcEEEE4rendEv
libsentencepiece.so.0:_ZNK6google8protobuf16RepeatedPtrFieldINSt7__cxx1112basic_stringIcSt11char_traitsIcESaIcEEEE4sizeEv
libsentencepiece.so.0:_ZNK6google8protobuf16RepeatedPtrFieldINSt7__cxx1112basic_stringIcSt11char_traitsIcESaIcEEEE5beginEv
libsentencepiece.so.0:_ZNK6google8protobuf16RepeatedPtrFieldINSt7__cxx1112basic_stringIcSt11char_traitsIcESaIcEEEE5emptyEv
libsentencepiece.so.0:_ZNK6google8protobuf16RepeatedPtrFieldINSt7__cxx1112basic_stringIcSt11char_traitsIcESaIcEEEE6cbeginEv
libsentencepiece.so.0:_ZNK6google8protobuf16RepeatedPtrFieldINSt7__cxx1112basic_stringIcSt11char_traitsIcESaIcEEEE6rbeginEv
libsentencepiece.so.0:_ZNK6google8protobuf16RepeatedPtrFieldINSt7__cxx1112basic_stringIcSt11char_traitsIcESaIcEEEE8CapacityEv
libsentencepiece.so.0:_ZNK6google8protobuf16RepeatedPtrFieldINSt7__cxx1112basic_stringIcSt11char_traitsIcESaIcEEEE8GetArenaEv
libsentencepiece.so.0:_ZNK6google8protobuf16RepeatedPtrFieldINSt7__cxx1112basic_stringIcSt11char_traitsIcESaIcEEEEixEi
libsentencepiece.so.0:_ZNK6google8protobuf2io15FileInputStream9ByteCountEv
libsentencepiece.so.0:_ZNK6google8protobuf2io16ArrayInputStream9ByteCountEv
libsentencepiece.so.0:_ZNK6google8protobuf2io16CodedInputStream15BytesUntilLimitEv
libsentencepiece.so.0:_ZNK6google8protobuf2io16CodedInputStream25BytesUntilTotalBytesLimitEv
libsentencepiece.so.0:_ZNK6google8protobuf2io17ArrayOutputStream9ByteCountEv
libsentencepiece.so.0:_ZNK6google8protobuf2io18IstreamInputStream9ByteCountEv
libsentencepiece.so.0:_ZNK6google8protobuf2io18StringOutputStream9ByteCountEv
libsentencepiece.so.0:_ZNK6google8protobuf2io19EpsCopyOutputStream9ByteCountEPh
libsentencepiece.so.0:_ZNK6google8protobuf2io19LimitingInputStream9ByteCountEv
libsentencepiece.so.0:_ZNK6google8protobuf2io19OstreamOutputStream9ByteCountEv
libsentencepiece.so.0:_ZNK6google8protobuf2io24ConcatenatingInputStream9ByteCountEv
libsentencepiece.so.0:_ZNK6google8protobuf2io25CopyingInputStreamAdaptor9ByteCountEv
libsentencepiece.so.0:_ZNK6google8protobuf2io26CopyingOutputStreamAdaptor9ByteCountEv
libsentencepiece.so.0:_ZNK6google8protobuf4util6Status8ToStringB5cxx11Ev
libsentencepiece.so.0:_ZNK6google8protobuf4util6StatuseqERKS2_
libsentencepiece.so.0:_ZNK6google8protobuf7strings15ArrayByteSource9AvailableEv
libsentencepiece.so.0:_ZNK6google8protobuf7strings15LimitByteSource9AvailableEv
libsentencepiece.so.0:_ZNK6google8protobuf8internal10LazyString4InitB5cxx11Ev
libsentencepiece.so.0:_ZNK6google8protobuf8internal11SerialArena9SpaceUsedEv
libsentencepiece.so.0:_ZNK6google8protobuf8internal12ExtensionSet10FindOrNullEi
libsentencepiece.so.0:_ZNK6google8protobuf8internal12ExtensionSet10GetMessageEiRKNS0_11MessageLiteE
libsentencepiece.so.0:_ZNK6google8protobuf8internal12ExtensionSet13ExtensionSizeEi
libsentencepiece.so.0:_ZNK6google8protobuf8internal12ExtensionSet13ExtensionTypeEi
libsentencepiece.so.0:_ZNK6google8protobuf8internal12ExtensionSet13IsInitializedEv
libsentencepiece.so.0:_ZNK6google8protobuf8internal12ExtensionSet13NumExtensionsEv
libsentencepiece.so.0:_ZNK6google8protobuf8internal12ExtensionSet15GetRepeatedBoolEii
libsentencepiece.so.0:_ZNK6google8protobuf8internal12ExtensionSet15GetRepeatedEnumEii
libsentencepiece.so.0:_ZNK6google8protobuf8internal12ExtensionSet16GetRepeatedFloatEii
libsentencepiece.so.0:_ZNK6google8protobuf8internal12ExtensionSet16GetRepeatedInt32Eii
libsentencepiece.so.0:_ZNK6google8protobuf8internal12ExtensionSet16GetRepeatedInt64Eii
libsentencepiece.so.0:_ZNK6google8protobuf8internal12ExtensionSet17GetRepeatedDoubleEii
libsentencepiece.so.0:_ZNK6google8protobuf8internal12ExtensionSet17GetRepeatedStringB5cxx11Eii
libsentencepiece.so.0:_ZNK6google8protobuf8internal12ExtensionSet17GetRepeatedUInt32Eii
libsentencepiece.so.0:_ZNK6google8protobuf8internal12ExtensionSet17GetRepeatedUInt64Eii
libsentencepiece.so.0:_ZNK6google8protobuf8internal12ExtensionSet18GetRepeatedMessageEii
libsentencepiece.so.0:_ZNK6google8protobuf8internal12ExtensionSet18MessageSetByteSizeEv
libsentencepiece.so.0:_ZNK6google8protobuf8internal12ExtensionSet18_InternalSerializeEiiPhPNS0_2io19EpsCopyOutputStreamE
libsentencepiece.so.0:_ZNK6google8protobuf8internal12ExtensionSet19GetRawRepeatedFieldEiPKv
libsentencepiece.so.0:_ZNK6google8protobuf8internal12ExtensionSet20FindOrNullInLargeMapEi
libsentencepiece.so.0:_ZNK6google8protobuf8internal12ExtensionSet3HasEi
libsentencepiece.so.0:_ZNK6google8protobuf8internal12ExtensionSet49InternalSerializeMessageSetWithCachedSizesToArrayEPhPNS0_2io19EpsCopyOutputStreamE
libsentencepiece.so.0:_ZNK6google8protobuf8internal12ExtensionSet7GetBoolEib
libsentencepiece.so.0:_ZNK6google8protobuf8internal12ExtensionSet7GetEnumEii
libsentencepiece.so.0:_ZNK6google8protobuf8internal12ExtensionSet8ByteSizeEv
libsentencepiece.so.0:_ZNK6google8protobuf8internal12ExtensionSet8GetFloatEif
libsentencepiece.so.0:_ZNK6google8protobuf8internal12ExtensionSet8GetInt32Eii
libsentencepiece.so.0:_ZNK6google8protobuf8internal12ExtensionSet8GetInt64Eil
libsentencepiece.so.0:_ZNK6google8protobuf8internal12ExtensionSet9Extension13IsInitializedEv
libsentencepiece.so.0:_ZNK6google8protobuf8internal12ExtensionSet9Extension22MessageSetItemByteSizeEi
libsentencepiece.so.0:_ZNK6google8protobuf8internal12ExtensionSet9Extension44InternalSerializeFieldWithCachedSizesToArrayEiPhPNS0_2io19EpsCopyOutputStreamE
libsentencepiece.so.0:_ZNK6google8protobuf8internal12ExtensionSet9Extension53InternalSerializeMessageSetItemWithCachedSizesToArrayEiPhPNS0_2io19EpsCopyOutputStreamE
libsentencepiece.so.0:_ZNK6google8protobuf8internal12ExtensionSet9Extension7GetSizeEv
libsentencepiece.so.0:_ZNK6google8protobuf8internal12ExtensionSet9Extension8ByteSizeEi
libsentencepiece.so.0:_ZNK6google8protobuf8internal12ExtensionSet9GetDoubleEid
libsentencepiece.so.0:_ZNK6google8protobuf8internal12ExtensionSet9GetStringEiRKNSt7__cxx1112basic_stringIcSt11char_traitsIcESaIcEEE
libsentencepiece.so.0:_ZNK6google8protobuf8internal12ExtensionSet9GetUInt32Eij
libsentencepiece.so.0:_ZNK6google8protobuf8internal12ExtensionSet9GetUInt64Eim
libsentencepiece.so.0:_ZNK6google8protobuf8internal9ArenaImpl14SpaceAllocatedEv
libsentencepiece.so.0:_ZNK6google8protobuf8internal9ArenaImpl9SpaceUsedEv
libsentencepiece.so.0:_ZNSt17_Function_handlerIFvRKNSt7__cxx1112basic_stringIcSt11char_traitsIcESaIcEEEEZN4absl4FlagIS5_EC4EPKcSD_SD_S7_EUlS7_E_E10_M_managerERSt9_Any_dataRKSG_St18_Manager_operation
libsentencepiece.so.0:_ZNSt17_Function_handlerIFvRKNSt7__cxx1112basic_stringIcSt11char_traitsIcESaIcEEEEZN4absl4FlagIS5_EC4EPKcSD_SD_S7_EUlS7_E_E9_M_invokeERKSt9_Any_dataS7_
libsentencepiece.so.0:_ZNSt17_Function_handlerIFvRKNSt7__cxx1112basic_stringIcSt11char_traitsIcESaIcEEEEZN4absl4FlagIbEC4EPKcSD_SD_RKbEUlS7_E_E10_M_managerERSt9_Any_dataRKSI_St18_Manager_operation
libsentencepiece.so.0:_ZNSt17_Function_handlerIFvRKNSt7__cxx1112basic_stringIcSt11char_traitsIcESaIcEEEEZN4absl4FlagIbEC4EPKcSD_SD_RKbEUlS7_E_E9_M_invokeERKSt9_Any_dataS7_
libsentencepiece.so.0:_ZNSt17_Function_handlerIFvRKNSt7__cxx1112basic_stringIcSt11char_traitsIcESaIcEEEEZN4absl4FlagIdEC4EPKcSD_SD_RKdEUlS7_E_E10_M_managerERSt9_Any_dataRKSI_St18_Manager_operation
libsentencepiece.so.0:_ZNSt17_Function_handlerIFvRKNSt7__cxx1112basic_stringIcSt11char_traitsIcESaIcEEEEZN4absl4FlagIdEC4EPKcSD_SD_RKdEUlS7_E_E9_M_invokeERKSt9_Any_dataS7_
libsentencepiece.so.0:_ZNSt17_Function_handlerIFvRKNSt7__cxx1112basic_stringIcSt11char_traitsIcESaIcEEEEZN4absl4FlagIfEC4EPKcSD_SD_RKfEUlS7_E_E10_M_managerERSt9_Any_dataRKSI_St18_Manager_operation
libsentencepiece.so.0:_ZNSt17_Function_handlerIFvRKNSt7__cxx1112basic_stringIcSt11char_traitsIcESaIcEEEEZN4absl4FlagIfEC4EPKcSD_SD_RKfEUlS7_E_E9_M_invokeERKSt9_Any_dataS7_
libsentencepiece.so.0:_ZNSt17_Function_handlerIFvRKNSt7__cxx1112basic_stringIcSt11char_traitsIcESaIcEEEEZN4absl4FlagIiEC4EPKcSD_SD_RKiEUlS7_E_E10_M_managerERSt9_Any_dataRKSI_St18_Manager_operation
libsentencepiece.so.0:_ZNSt17_Function_handlerIFvRKNSt7__cxx1112basic_stringIcSt11char_traitsIcESaIcEEEEZN4absl4FlagIiEC4EPKcSD_SD_RKiEUlS7_E_E9_M_invokeERKSt9_Any_dataS7_
libsentencepiece.so.0:_ZNSt17_Function_handlerIFvRKNSt7__cxx1112basic_stringIcSt11char_traitsIcESaIcEEEEZN4absl4FlagIjEC4EPKcSD_SD_RKjEUlS7_E_E10_M_managerERSt9_Any_dataRKSI_St18_Manager_operation
libsentencepiece.so.0:_ZNSt17_Function_handlerIFvRKNSt7__cxx1112basic_stringIcSt11char_traitsIcESaIcEEEEZN4absl4FlagIjEC4EPKcSD_SD_RKjEUlS7_E_E9_M_invokeERKSt9_Any_dataS7_
libsentencepiece.so.0:_ZNSt17_Function_handlerIFvRKNSt7__cxx1112basic_stringIcSt11char_traitsIcESaIcEEEEZN4absl4FlagIlEC4EPKcSD_SD_RKlEUlS7_E_E10_M_managerERSt9_Any_dataRKSI_St18_Manager_operation
libsentencepiece.so.0:_ZNSt17_Function_handlerIFvRKNSt7__cxx1112basic_stringIcSt11char_traitsIcESaIcEEEEZN4absl4FlagIlEC4EPKcSD_SD_RKlEUlS7_E_E9_M_invokeERKSt9_Any_dataS7_
libsentencepiece.so.0:_ZNSt17_Function_handlerIFvRKNSt7__cxx1112basic_stringIcSt11char_traitsIcESaIcEEEEZN4absl4FlagImEC4EPKcSD_SD_RKmEUlS7_E_E10_M_managerERSt9_Any_dataRKSI_St18_Manager_operation
libsentencepiece.so.0:_ZNSt17_Function_handlerIFvRKNSt7__cxx1112basic_stringIcSt11char_traitsIcESaIcEEEEZN4absl4FlagImEC4EPKcSD_SD_RKmEUlS7_E_E9_M_invokeERKSt9_Any_dataS7_
libsentencepiece.so.0:_ZZN6google8protobuf8internal16OnShutdownDeleteINS0_16RepeatedPtrFieldINSt7__cxx1112basic_stringIcSt11char_traitsIcESaIcEEEEEEEPT_SC_ENUlPKvE_4_FUNESE_
libsentencepiece.so.0:_ZZN6google8protobuf8internal16OnShutdownDeleteINS1_25RepeatedPrimitiveDefaultsEEEPT_S5_ENUlPKvE_4_FUNES7_
libsentencepiece.so.0:_ZZNSt9once_flag18_Prepare_executionC4IZSt9call_onceIRFvvEJEEvRS_OT_DpOT0_EUlvE_EERS6_ENUlvE_4_FUNEv
libsentencepiece_train.so.0:_ZN13sentencepiece10normalizer7Builder12BuildNFKCMapEPSt3mapISt6vectorIjSaIjEES5_St4lessIS5_ESaISt4pairIKS5_S5_EEE
libsentencepiece_train.so.0:_ZN13sentencepiece10normalizer7Builder12BuildNFKDMapEPSt3mapISt6vectorIjSaIjEES5_St4lessIS5_ESaISt4pairIKS5_S5_EEE
libsentencepiece_train.so.0:_ZN13sentencepiece10normalizer7Builder12LoadCharsMapESt17basic_string_viewIcSt11char_traitsIcEEPSt3mapISt6vectorIjSaIjEES9_St4lessIS9_ESaISt4pairIKS9_S9_EEE
libsentencepiece_train.so.0:_ZN13sentencepiece10normalizer7Builder12SaveCharsMapESt17basic_string_viewIcSt11char_traitsIcEERKSt3mapISt6vectorIjSaIjEES9_St4lessIS9_ESaISt4pairIKS9_S9_EEE
libsentencepiece_train.so.0:_ZN13sentencepiece10normalizer7Builder15BuildNFKC_CFMapEPSt3mapISt6vectorIjSaIjEES5_St4lessIS5_ESaISt4pairIKS5_S5_EEE
libsentencepiece_train.so.0:_ZN13sentencepiece10normalizer7Builder15BuildNmtNFKCMapEPSt3mapISt6vectorIjSaIjEES5_St4lessIS5_ESaISt4pairIKS5_S5_EEE
libsentencepiece_train.so.0:_ZN13sentencepiece10normalizer7Builder15CompileCharsMapERKSt3mapISt6vectorIjSaIjEES5_St4lessIS5_ESaISt4pairIKS5_S5_EEEPNSt7__cxx1112basic_stringIcSt11char_traitsIcESaIcEEE
libsentencepiece_train.so.0:_ZN13sentencepiece10normalizer7Builder17DecompileCharsMapESt17basic_string_viewIcSt11char_traitsIcEEPSt3mapISt6vectorIjSaIjEES9_St4lessIS9_ESaISt4pairIKS9_S9_EEE
libsentencepiece_train.so.0:_ZN13sentencepiece10normalizer7Builder18BuildNmtNFKC_CFMapEPSt3mapISt6vectorIjSaIjEES5_St4lessIS5_ESaISt4pairIKS5_S5_EEE
libsentencepiece_train.so.0:_ZN13sentencepiece10normalizer7Builder18RemoveRedundantMapEPSt3mapISt6vectorIjSaIjEES5_St4lessIS5_ESaISt4pairIKS5_S5_EEE
libsentencepiece_train.so.0:_ZN13sentencepiece10normalizer7Builder22GetPrecompiledCharsMapESt17basic_string_viewIcSt11char_traitsIcEEPNSt7__cxx1112basic_stringIcS4_SaIcEEE
libsentencepiece_train.so.0:_ZN13sentencepiece10normalizer7Builder23MergeUnicodeCaseFoldMapEPSt3mapISt6vectorIjSaIjEES5_St4lessIS5_ESaISt4pairIKS5_S5_EEE
libsentencepiece_train.so.0:_ZN13sentencepiece12pretokenizer32PretokenizerForTrainingInterface10PreprocessB5cxx11ESt17basic_string_viewIcSt11char_traitsIcEE
libsentencepiece_train.so.0:_ZN13sentencepiece12pretokenizer32PretokenizerForTrainingInterface11PostprocessB5cxx11ERKNS_17SentencePieceTextE
libsentencepiece_train.so.0:_ZN13sentencepiece14TrainerFactory6CreateERKNS_11TrainerSpecERKNS_14NormalizerSpecES6_
libsentencepiece_train.so.0:_ZN13sentencepiece14unicode_script9GetScriptEj
libsentencepiece_train.so.0:_ZN13sentencepiece16TrainerInterface13LoadSentencesEv
libsentencepiece_train.so.0:_ZN13sentencepiece16TrainerInterface14InitMetaPiecesEv
libsentencepiece_train.so.0:_ZN13sentencepiece16TrainerInterface26SplitSentencesByWhitespaceEv
libsentencepiece_train.so.0:_ZN13sentencepiece16TrainerInterfaceC1ERKNS_11TrainerSpecERKNS_14NormalizerSpecES6_
libsentencepiece_train.so.0:_ZN13sentencepiece16TrainerInterfaceC2ERKNS_11TrainerSpecERKNS_14NormalizerSpecES6_
libsentencepiece_train.so.0:_ZN13sentencepiece16TrainerInterfaceD0Ev
libsentencepiece_train.so.0:_ZN13sentencepiece16TrainerInterfaceD1Ev
libsentencepiece_train.so.0:_ZN13sentencepiece16TrainerInterfaceD2Ev
libsentencepiece_train.so.0:_ZN13sentencepiece20SentencePieceTrainer13SetProtoFieldESt17basic_string_viewIcSt11char_traitsIcEES4_PNS_11TrainerSpecE
libsentencepiece_train.so.0:_ZN13sentencepiece20SentencePieceTrainer13SetProtoFieldESt17basic_string_viewIcSt11char_traitsIcEES4_PNS_14NormalizerSpecE
libsentencepiece_train.so.0:_ZN13sentencepiece20SentencePieceTrainer17GetNormalizerSpecESt17basic_string_viewIcSt11char_traitsIcEE
libsentencepiece_train.so.0:_ZN13sentencepiece20SentencePieceTrainer18MergeSpecsFromArgsERKSt13unordered_mapINSt7__cxx1112basic_stringIcSt11char_traitsIcESaIcEEES7_St4hashIS7_ESt8equal_toIS7_ESaISt4pairIKS7_S7_EEEPNS_11TrainerSpecEPNS_14NormalizerSpecESM_
libsentencepiece_train.so.0:_ZN13sentencepiece20SentencePieceTrainer18MergeSpecsFromArgsESt17basic_string_viewIcSt11char_traitsIcEEPNS_11TrainerSpecEPNS_14NormalizerSpecES8_
libsentencepiece_train.so.0:_ZN13sentencepiece20SentencePieceTrainer22PopulateNormalizerSpecEPNS_14NormalizerSpecEb
libsentencepiece_train.so.0:_ZN13sentencepiece20SentencePieceTrainer26GetPretokenizerForTrainingEv
libsentencepiece_train.so.0:_ZN13sentencepiece20SentencePieceTrainer26SetPretokenizerForTrainingEPKNS_12pretokenizer32PretokenizerForTrainingInterfaceE
libsentencepiece_train.so.0:_ZN13sentencepiece20SentencePieceTrainer27PopulateModelTypeFromStringESt17basic_string_viewIcSt11char_traitsIcEEPNS_11TrainerSpecE
libsentencepiece_train.so.0:_ZN13sentencepiece20SentencePieceTrainer5TrainERKNS_11TrainerSpecEPNS_16SentenceIteratorEPNSt7__cxx1112basic_stringIcSt11char_traitsIcESaIcEEE
libsentencepiece_train.so.0:_ZN13sentencepiece20SentencePieceTrainer5TrainERKNS_11TrainerSpecERKNS_14NormalizerSpecEPNS_16SentenceIteratorEPNSt7__cxx1112basic_stringIcSt11char_traitsIcESaIcEEE
libsentencepiece_train.so.0:_ZN13sentencepiece20SentencePieceTrainer5TrainERKNS_11TrainerSpecERKNS_14NormalizerSpecES6_PNS_16SentenceIteratorEPNSt7__cxx1112basic_stringIcSt11char_traitsIcESaIcEEE
libsentencepiece_train.so.0:_ZN13sentencepiece20SentencePieceTrainer5TrainERKSt13unordered_mapINSt7__cxx1112basic_stringIcSt11char_traitsIcESaIcEEES7_St4hashIS7_ESt8equal_toIS7_ESaISt4pairIKS7_S7_EEEPNS_16SentenceIteratorEPS7_
libsentencepiece_train.so.0:_ZN13sentencepiece20SentencePieceTrainer5TrainESt17basic_string_viewIcSt11char_traitsIcEEPNS_16SentenceIteratorEPNSt7__cxx1112basic_stringIcS3_SaIcEEE
libsentencepiece_train.so.0:_ZN13sentencepiece25MultiFileSentenceIterator4NextEv
libsentencepiece_train.so.0:_ZN13sentencepiece25MultiFileSentenceIterator7TryReadEv
libsentencepiece_train.so.0:_ZN13sentencepiece25MultiFileSentenceIteratorC1ERKSt6vectorINSt7__cxx1112basic_stringIcSt11char_traitsIcESaIcEEESaIS7_EE
libsentencepiece_train.so.0:_ZN13sentencepiece25MultiFileSentenceIteratorC2ERKSt6vectorINSt7__cxx1112basic_stringIcSt11char_traitsIcESaIcEEESaIS7_EE
libsentencepiece_train.so.0:_ZN13sentencepiece3bpe7Trainer10AddNewPairEiii
libsentencepiece_train.so.0:_ZN13sentencepiece3bpe7Trainer13GetCharSymbolEj
libsentencepiece_train.so.0:_ZN13sentencepiece3bpe7Trainer13GetPairSymbolEPKNS1_6SymbolES4_
libsentencepiece_train.so.0:_ZN13sentencepiece3bpe7Trainer19UpdateActiveSymbolsEv
libsentencepiece_train.so.0:_ZN13sentencepiece3bpe7Trainer5TrainEv
libsentencepiece_train.so.0:_ZN13sentencepiece3bpe7Trainer9ResetFreqEiiiPKNS1_6SymbolE
libsentencepiece_train.so.0:_ZN13sentencepiece4word7Trainer5TrainEv
libsentencepiece_train.so.0:_ZN13sentencepiece7unigram12TrainerModel17SetSentencePiecesEOSt6vectorISt4pairINSt7__cxx1112basic_stringIcSt11char_traitsIcESaIcEEEfESaISA_EE
libsentencepiece_train.so.0:_ZN13sentencepiece7unigram12TrainerModelC1ERKNS_11TrainerSpecERKNS_14NormalizerSpecE
libsentencepiece_train.so.0:_ZN13sentencepiece7unigram12TrainerModelC2ERKNS_11TrainerSpecERKNS_14NormalizerSpecE
libsentencepiece_train.so.0:_ZN13sentencepiece7unigram12TrainerModelD0Ev
libsentencepiece_train.so.0:_ZN13sentencepiece7unigram12TrainerModelD1Ev
libsentencepiece_train.so.0:_ZN13sentencepiece7unigram12TrainerModelD2Ev
libsentencepiece_train.so.0:_ZN13sentencepiece7unigram7Trainer5TrainEv
libsentencepiece_train.so.0:_ZN13sentencepiece9character7Trainer5TrainEv
libsentencepiece_train.so.0:_ZNK13sentencepiece12pretokenizer32PretokenizerForTrainingInterface11PreTokenizeB5cxx11ESt17basic_string_viewIcSt11char_traitsIcEE
libsentencepiece_train.so.0:_ZNK13sentencepiece16TrainerInterface20IsValidSentencePieceERKSt6vectorIjSaIjEE
libsentencepiece_train.so.0:_ZNK13sentencepiece16TrainerInterface4SaveEv
libsentencepiece_train.so.0:_ZNK13sentencepiece16TrainerInterface9SaveModelESt17basic_string_viewIcSt11char_traitsIcEE
libsentencepiece_train.so.0:_ZNK13sentencepiece16TrainerInterface9SaveVocabESt17basic_string_viewIcSt11char_traitsIcEE
libsentencepiece_train.so.0:_ZNK13sentencepiece16TrainerInterface9SerializeEPNS_10ModelProtoE
libsentencepiece_train.so.0:_ZNK13sentencepiece25MultiFileSentenceIterator4doneEv
libsentencepiece_train.so.0:_ZNK13sentencepiece25MultiFileSentenceIterator6statusEv
libsentencepiece_train.so.0:_ZNK13sentencepiece3bpe7Trainer11ComputeFreqEPNS1_6SymbolE
libsentencepiece_train.so.0:_ZNK13sentencepiece3bpe7Trainer12GetNextIndexEii
libsentencepiece_train.so.0:_ZNK13sentencepiece3bpe7Trainer12GetPrevIndexEii
libsentencepiece_train.so.0:_ZNK13sentencepiece3bpe7Trainer6Symbol8ToStringB5cxx11Ev
libsentencepiece_train.so.0:_ZNK13sentencepiece7unigram12TrainerModel17GetSentencePiecesB5cxx11Ev
libsentencepiece_train.so.0:_ZNK13sentencepiece7unigram7Trainer19PruneSentencePiecesB5cxx11ERKNS0_12TrainerModelE
libsentencepiece_train.so.0:_ZNK13sentencepiece7unigram7Trainer22FinalizeSentencePiecesB5cxx11ERKNS0_12TrainerModelE
libsentencepiece_train.so.0:_ZNK13sentencepiece7unigram7Trainer22MakeSeedSentencePiecesB5cxx11Ev
libsentencepiece_train.so.0:_ZNK13sentencepiece7unigram7Trainer8RunEStepERKNS0_12TrainerModelEPfPl
libsentencepiece_train.so.0:_ZNK13sentencepiece7unigram7Trainer8RunMStepB5cxx11ERKNS0_12TrainerModelERKSt6vectorIfSaIfEE
libsentencepiece_train.so.0:_ZNSt6thread24_M_thread_deps_never_runEv
